Archive member included because of file (symbol)

c:/NXP/bstudio_nxp/sdk/JN-SW-4168/Components/Library\libOS_JN516x.a(os.o)
                              c:/NXP/bstudio_nxp/workspace/ZigBee-LightLink-Test-1/Light_ColorTemperatureLight/Build/os_gen.o (symbol from plugin) (os_vStart)
c:/NXP/bstudio_nxp/sdk/JN-SW-4168/Components/Library\libOS_JN516x.a(os_contirq_JN516x.o)
                              c:/NXP/bstudio_nxp/workspace/ZigBee-LightLink-Test-1/Light_ColorTemperatureLight/Build/os_irq.o (os_UnclaimedException_W)
c:/NXP/bstudio_nxp/sdk/JN-SW-4168/Components/Library\libPWRM_JN516x.a(pwrm.o)
                              c:/NXP/bstudio_nxp/workspace/ZigBee-LightLink-Test-1/Light_ColorTemperatureLight/Build/app_start_light.o (symbol from plugin) (PWRM_vInit)
c:/NXP/bstudio_nxp/sdk/JN-SW-4168/Components/Library\libPWRM_JN516x.a(pwrm_setjmp_JN516x.o)
                              pwrm.o (symbol from plugin) (setjmp)
c:/NXP/bstudio_nxp/sdk/JN-SW-4168/Components/Library\libPWRM_JN516x.a(pwrm_cold_start.o)
                              (AppColdStart)
c:/NXP/bstudio_nxp/sdk/JN-SW-4168/Components/Library\libPWRM_JN516x.a(pwrm_warm_start.o)
                              (AppWarmStart)
c:/NXP/bstudio_nxp/sdk/JN-SW-4168/Components/Library\libPDUM_JN516x.a(pdum_nwk.o)
                              c:/NXP/bstudio_nxp/workspace/ZigBee-LightLink-Test-1/Light_ColorTemperatureLight/Build/pdum_gen.o (symbol from plugin) (pdum_vNPduInit)
c:/NXP/bstudio_nxp/sdk/JN-SW-4168/Components/Library\libPDUM_JN516x.a(pdum_apl.o)
                              c:/NXP/bstudio_nxp/workspace/ZigBee-LightLink-Test-1/Light_ColorTemperatureLight/Build/zll_CommissionCmdHandler.o (symbol from plugin) (PDUM_u16APduInstanceReadNBO)
c:/NXP/bstudio_nxp/sdk/JN-SW-4168/Components/Library\libPDUM_JN516x.a(pdum.o)
                              pdum_nwk.o (symbol from plugin) (PDUM_u16SizeNBO)
c:/NXP/bstudio_nxp/sdk/JN-SW-4168/Components/Library\libZPSAPL_JN516x.a(zps_apl_af.o)
                              c:/NXP/bstudio_nxp/workspace/ZigBee-LightLink-Test-1/Light_ColorTemperatureLight/Build/zpr_light_node.o (symbol from plugin) (ZPS_eAplAfInit)
c:/NXP/bstudio_nxp/sdk/JN-SW-4168/Components/Library\libZPSAPL_JN516x.a(zps_apl_af_apsde.o)
                              c:/NXP/bstudio_nxp/workspace/ZigBee-LightLink-Test-1/Light_ColorTemperatureLight/Build/zps_gen.o (symbol from plugin) (zps_vHandleApsdeDataFragIndNotSupported)
c:/NXP/bstudio_nxp/sdk/JN-SW-4168/Components/Library\libZPSAPL_JN516x.a(zps_apl_task.o)
                              zps_apl_af_apsde.o (symbol from plugin) (zps_vAplAfPostEvent)
c:/NXP/bstudio_nxp/sdk/JN-SW-4168/Components/Library\libZPSAPL_JN516x.a(zps_apl_apsde.o)
                              zps_apl_task.o (symbol from plugin) (ZPS_vAplRegisterApsdeDcfmIndCallbacks)
c:/NXP/bstudio_nxp/sdk/JN-SW-4168/Components/Library\libZPSAPL_JN516x.a(zps_apl_apsme.o)
                              zps_apl_task.o (symbol from plugin) (ZPS_vAplRegisterApsmeDcfmIndCallbacks)
c:/NXP/bstudio_nxp/sdk/JN-SW-4168/Components/Library\libZPSAPL_JN516x.a(zps_apl_aps_nlde.o)
                              zps_apl_task.o (symbol from plugin) (zps_vAplApsHandleNldeDcfmInd)
c:/NXP/bstudio_nxp/sdk/JN-SW-4168/Components/Library\libZPSAPL_JN516x.a(zps_apl_sec.o)
                              zps_apl_task.o (symbol from plugin) (zps_psFindKeyDescr)
c:/NXP/bstudio_nxp/sdk/JN-SW-4168/Components/Library\libZPSAPL_JN516x.a(zps_apl_aib.o)
                              c:/NXP/bstudio_nxp/workspace/ZigBee-LightLink-Test-1/Light_ColorTemperatureLight/Build/app_light_commission_task.o (symbol from plugin) (zps_psAplAibGetAib)
c:/NXP/bstudio_nxp/sdk/JN-SW-4168/Components/Library\libZPSAPL_JN516x.a(zps_apl_zdo_nwkmanager.o)
                              zps_apl_apsme.o (symbol from plugin) (zps_vAplSaveRecord)
c:/NXP/bstudio_nxp/sdk/JN-SW-4168/Components/Library\libZPSAPL_JN516x.a(zps_apl_zdo_handle_zdp_event.o)
                              zps_apl_task.o (symbol from plugin) (zps_bAplZdoHandleZdpEvent)
c:/NXP/bstudio_nxp/sdk/JN-SW-4168/Components/Library\libZPSAPL_JN516x.a(zps_apl_zdo_trust_center.o)
                              zps_apl_sec.o (symbol from plugin) (zps_eAplTrustCenterFindDevice)
c:/NXP/bstudio_nxp/sdk/JN-SW-4168/Components/Library\libZPSAPL_JN516x.a(zps_apl_zdo_common.o)
                              zps_apl_zdo_nwkmanager.o (symbol from plugin) (zps_eAplZdoNlmeleaveWrapper)
c:/NXP/bstudio_nxp/sdk/JN-SW-4168/Components/Library\libZPSAPL_JN516x.a(zps_apl_zdo_group.o)
                              c:/NXP/bstudio_nxp/workspace/ZigBee-LightLink-Test-1/Light_ColorTemperatureLight/Build/GroupsTableManager.o (symbol from plugin) (zps_eAplZdoGroupEndpointAdd)
c:/NXP/bstudio_nxp/sdk/JN-SW-4168/Components/Library\libZPSAPL_JN516x.a(zps_apl_zdo_default_server.o)
                              c:/NXP/bstudio_nxp/workspace/ZigBee-LightLink-Test-1/Light_ColorTemperatureLight/Build/zps_gen.o (symbol from plugin) (zps_vAplZdoDefaultServerInit)
c:/NXP/bstudio_nxp/sdk/JN-SW-4168/Components/Library\libZPSAPL_JN516x.a(zps_apl_mac_isr.o)
                              zps_apl_task.o (symbol from plugin) (u32DataQueueCount)
c:/NXP/bstudio_nxp/sdk/JN-SW-4168/Components/Library\libZPSAPL_JN516x.a(zps_apl_zdo_nwk_addr_server.o)
                              c:/NXP/bstudio_nxp/workspace/ZigBee-LightLink-Test-1/Light_ColorTemperatureLight/Build/zps_gen.o (symbol from plugin) (zps_vAplZdoNwkAddrServerInit)
c:/NXP/bstudio_nxp/sdk/JN-SW-4168/Components/Library\libZPSAPL_JN516x.a(zps_apl_zdo_ieee_addr_server.o)
                              c:/NXP/bstudio_nxp/workspace/ZigBee-LightLink-Test-1/Light_ColorTemperatureLight/Build/zps_gen.o (symbol from plugin) (zps_vAplZdoIeeeAddrServerInit)
c:/NXP/bstudio_nxp/sdk/JN-SW-4168/Components/Library\libZPSAPL_JN516x.a(zps_apl_zdo_match_desc_server.o)
                              c:/NXP/bstudio_nxp/workspace/ZigBee-LightLink-Test-1/Light_ColorTemperatureLight/Build/zps_gen.o (symbol from plugin) (zps_vAplZdoMatchDescServerInit)
c:/NXP/bstudio_nxp/sdk/JN-SW-4168/Components/Library\libZPSAPL_JN516x.a(zps_apl_zdo_node_desc_server.o)
                              c:/NXP/bstudio_nxp/workspace/ZigBee-LightLink-Test-1/Light_ColorTemperatureLight/Build/zps_gen.o (symbol from plugin) (zps_vAplZdoNodeDescServerInit)
c:/NXP/bstudio_nxp/sdk/JN-SW-4168/Components/Library\libZPSAPL_JN516x.a(zps_apl_zdo_simple_desc_server.o)
                              c:/NXP/bstudio_nxp/workspace/ZigBee-LightLink-Test-1/Light_ColorTemperatureLight/Build/zps_gen.o (symbol from plugin) (zps_vAplZdoSimpleDescServerInit)
c:/NXP/bstudio_nxp/sdk/JN-SW-4168/Components/Library\libZPSAPL_JN516x.a(zps_apl_zdo_power_desc_server.o)
                              c:/NXP/bstudio_nxp/workspace/ZigBee-LightLink-Test-1/Light_ColorTemperatureLight/Build/zps_gen.o (symbol from plugin) (zps_vAplZdoPowerDescServerInit)
c:/NXP/bstudio_nxp/sdk/JN-SW-4168/Components/Library\libZPSAPL_JN516x.a(zps_apl_zdo_active_ep_server.o)
                              c:/NXP/bstudio_nxp/workspace/ZigBee-LightLink-Test-1/Light_ColorTemperatureLight/Build/zps_gen.o (symbol from plugin) (zps_vAplZdoActiveEpServerInit)
c:/NXP/bstudio_nxp/sdk/JN-SW-4168/Components/Library\libZPSAPL_JN516x.a(zps_apl_zdo_device_annce_server.o)
                              c:/NXP/bstudio_nxp/workspace/ZigBee-LightLink-Test-1/Light_ColorTemperatureLight/Build/zps_gen.o (symbol from plugin) (zps_vAplZdoDeviceAnnceServerInit)
c:/NXP/bstudio_nxp/sdk/JN-SW-4168/Components/Library\libZPSAPL_JN516x.a(zps_apl_zdo_permit_joining_server.o)
                              c:/NXP/bstudio_nxp/workspace/ZigBee-LightLink-Test-1/Light_ColorTemperatureLight/Build/zps_gen.o (symbol from plugin) (zps_vAplZdoPermitJoiningServerInit)
c:/NXP/bstudio_nxp/sdk/JN-SW-4168/Components/Library\libZPSAPL_JN516x.a(zps_apl_zdo_system_server_discovery_server.o)
                              c:/NXP/bstudio_nxp/workspace/ZigBee-LightLink-Test-1/Light_ColorTemperatureLight/Build/zps_gen.o (symbol from plugin) (zps_vAplZdoSystemServerDiscoveryServerInit)
c:/NXP/bstudio_nxp/sdk/JN-SW-4168/Components/Library\libZPSAPL_JN516x.a(zps_apl_zdo_mgmt_lqi_server.o)
                              c:/NXP/bstudio_nxp/workspace/ZigBee-LightLink-Test-1/Light_ColorTemperatureLight/Build/zps_gen.o (symbol from plugin) (zps_vAplZdoMgmtLqiServerInit)
c:/NXP/bstudio_nxp/sdk/JN-SW-4168/Components/Library\libZPSAPL_JN516x.a(zps_apl_zdo_mgmt_rtg_server.o)
                              c:/NXP/bstudio_nxp/workspace/ZigBee-LightLink-Test-1/Light_ColorTemperatureLight/Build/zps_gen.o (symbol from plugin) (zps_vAplZdoMgmtRtgServerInit)
c:/NXP/bstudio_nxp/sdk/JN-SW-4168/Components/Library\libZPSAPL_JN516x.a(zps_apl_zdo_mgmt_leave_server.o)
                              c:/NXP/bstudio_nxp/workspace/ZigBee-LightLink-Test-1/Light_ColorTemperatureLight/Build/zps_gen.o (symbol from plugin) (zps_vAplZdoMgmtLeaveServerInit)
c:/NXP/bstudio_nxp/sdk/JN-SW-4168/Components/Library\libZPSAPL_JN516x.a(zps_apl_zdo_mgmt_nwk_update_server.o)
                              c:/NXP/bstudio_nxp/workspace/ZigBee-LightLink-Test-1/Light_ColorTemperatureLight/Build/zps_gen.o (symbol from plugin) (zps_vAplZdoMgmtNWKUpdateServerInit)
c:/NXP/bstudio_nxp/sdk/JN-SW-4168/Components/Library\libZPSAPL_JN516x.a(zps_apl_zdo_bound_data_request_manager.o)
                              zps_apl_af.o (symbol from plugin) (zps_eAplZdoBdrmRequestSend)
c:/NXP/bstudio_nxp/sdk/JN-SW-4168/Components/Library\libZPSAPL_JN516x.a(zps_apl_zdo_nwkmanager_client.o)
                              c:/NXP/bstudio_nxp/workspace/ZigBee-LightLink-Test-1/Light_ColorTemperatureLight/Build/zps_gen.o (symbol from plugin) (zps_vAplZdoZdoClientInit)
c:/NXP/bstudio_nxp/sdk/JN-SW-4168/Components/Library\libZPSAPL_JN516x.a(zps_apl_zdp_apsde_req.o)
                              zps_apl_zdo_nwkmanager_client.o (symbol from plugin) (zps_eAplZdpApsdeReqInternal)
c:/NXP/bstudio_nxp/sdk/JN-SW-4168/Components/Library\libZPSAPL_JN516x.a(zps_apl_zdp_device_annce.o)
                              c:/NXP/bstudio_nxp/workspace/ZigBee-LightLink-Test-1/Light_ColorTemperatureLight/Build/zpr_light_node.o (symbol from plugin) (zps_eAplZdpDeviceAnnceRequest)
c:/NXP/bstudio_nxp/sdk/JN-SW-4168/Components/Library\libZPSAPL_JN516x.a(zps_apl_zdp_nwk_addr_rsp.o)
                              zps_apl_zdo_nwk_addr_server.o (symbol from plugin) (zps_eZdpNwkAddrResponse)
c:/NXP/bstudio_nxp/sdk/JN-SW-4168/Components/Library\libZPSAPL_JN516x.a(zps_apl_zdp_ieee_addr_rsp.o)
                              zps_apl_zdo_ieee_addr_server.o (symbol from plugin) (zps_eZdpIeeeAddrResponse)
c:/NXP/bstudio_nxp/sdk/JN-SW-4168/Components/Library\libZPSAPL_JN516x.a(zps_apl_zdp_node_desc_rsp.o)
                              zps_apl_zdo_node_desc_server.o (symbol from plugin) (zps_eZdpNodeDescResponse)
c:/NXP/bstudio_nxp/sdk/JN-SW-4168/Components/Library\libZPSAPL_JN516x.a(zps_apl_zdp_power_desc_rsp.o)
                              zps_apl_zdo_power_desc_server.o (symbol from plugin) (zps_eZdpPowerDescResponse)
c:/NXP/bstudio_nxp/sdk/JN-SW-4168/Components/Library\libZPSAPL_JN516x.a(zps_apl_zdp_simple_desc_rsp.o)
                              zps_apl_zdo_simple_desc_server.o (symbol from plugin) (zps_eZdpSimpleDescResponse)
c:/NXP/bstudio_nxp/sdk/JN-SW-4168/Components/Library\libZPSAPL_JN516x.a(zps_apl_zdp_active_ep_rsp.o)
                              zps_apl_zdo_active_ep_server.o (symbol from plugin) (zps_eZdpActiveEpResponse)
c:/NXP/bstudio_nxp/sdk/JN-SW-4168/Components/Library\libZPSAPL_JN516x.a(zps_apl_zdp_match_desc_rsp.o)
                              zps_apl_zdo_match_desc_server.o (symbol from plugin) (zps_eZdpMatchDescResponse)
c:/NXP/bstudio_nxp/sdk/JN-SW-4168/Components/Library\libZPSAPL_JN516x.a(zps_apl_zdp_system_server_discovery_rsp.o)
                              zps_apl_zdo_system_server_discovery_server.o (symbol from plugin) (zps_eZdpSystemServerDiscoveryResponse)
c:/NXP/bstudio_nxp/sdk/JN-SW-4168/Components/Library\libZPSAPL_JN516x.a(zps_apl_zdp_mgmt_lqi_rsp.o)
                              zps_apl_zdo_mgmt_lqi_server.o (symbol from plugin) (zps_eAplZdpMgmtLqiResponse)
c:/NXP/bstudio_nxp/sdk/JN-SW-4168/Components/Library\libZPSAPL_JN516x.a(zps_apl_zdp_mgmt_rtg_rsp.o)
                              zps_apl_zdo_mgmt_rtg_server.o (symbol from plugin) (zps_eAplZdpMgmtRtgResponse)
c:/NXP/bstudio_nxp/sdk/JN-SW-4168/Components/Library\libZPSAPL_JN516x.a(zps_apl_zdp_mgmt_leave_rsp.o)
                              zps_apl_zdo_mgmt_leave_server.o (symbol from plugin) (zps_eZdpMgmtLeaveResponse)
c:/NXP/bstudio_nxp/sdk/JN-SW-4168/Components/Library\libZPSAPL_JN516x.a(zps_apl_zdp_mgmt_nwk_update_notify_rsp.o)
                              zps_apl_zdo_mgmt_nwk_update_server.o (symbol from plugin) (zps_eZdpMgmtNwkUpdateNotifyResponse)
c:/NXP/bstudio_nxp/sdk/JN-SW-4168/Components/Library\libZPSAPL_JN516x.a(zps_apl_zdp_mgmt_permit_joining_rsp.o)
                              zps_apl_zdo_permit_joining_server.o (symbol from plugin) (zps_eZdpMgmtPermitJoiningResponse)
c:/NXP/bstudio_nxp/sdk/JN-SW-4168/Components/Library\libZPSAPL_JN516x.a(zps_apl_zdo_bind_unbind_server.o)
                              zps_apl_zdo_nwkmanager_client.o (symbol from plugin) (bAplZdoBindUnbindServerProcessApdu)
c:/NXP/bstudio_nxp/sdk/JN-SW-4168/Components/Library\libZPSAPL_JN516x.a(zps_apl_zdp_bind_rsp.o)
                              zps_apl_zdo_bind_unbind_server.o (symbol from plugin) (zps_eAplZdpBindResponse)
c:/NXP/bstudio_nxp/sdk/JN-SW-4168/Components/Library\libZPSAPL_JN516x.a(zps_apl_zdp_unbind_rsp.o)
                              zps_apl_zdo_bind_unbind_server.o (symbol from plugin) (zps_eZdpUnbindResponse)
c:/NXP/bstudio_nxp/sdk/JN-SW-4168/Components/Library\libRandom_JN516x.a(rnd_main.o)
                              zps_apl_af.o (symbol from plugin) (RND_vInit)
c:/NXP/bstudio_nxp/sdk/JN-SW-4168/Components/Library\libPDM_EEPROM_JN516x.a(PDM_Create.o)
                              c:/NXP/bstudio_nxp/workspace/ZigBee-LightLink-Test-1/Light_ColorTemperatureLight/Build/app_start_light.o (symbol from plugin) (PDM_eInitialise)
c:/NXP/bstudio_nxp/sdk/JN-SW-4168/Components/Library\libPDM_EEPROM_JN516x.a(PDM_EEPROMsegmentStatus.o)
                              PDM_Create.o (symbol from plugin) (bPDM_DoesEEPROMsegmentContainFileSystemHeader)
c:/NXP/bstudio_nxp/sdk/JN-SW-4168/Components/Library\libPDM_EEPROM_JN516x.a(PDM_FileSystem.o)
                              c:/NXP/bstudio_nxp/workspace/ZigBee-LightLink-Test-1/Light_ColorTemperatureLight/Build/zpr_light_node.o (symbol from plugin) (u8PDM_CalculateFileSystemCapacity)
c:/NXP/bstudio_nxp/sdk/JN-SW-4168/Components/Library\libPDM_EEPROM_JN516x.a(PDM_FileSystemData.o)
                              c:/NXP/bstudio_nxp/workspace/ZigBee-LightLink-Test-1/Light_ColorTemperatureLight/Build/app_scenes.o (symbol from plugin) (PDM_eReadDataFromRecord)
c:/NXP/bstudio_nxp/sdk/JN-SW-4168/Components/Library\libPDM_EEPROM_JN516x.a(PDM_FileSystemDelete.o)
                              c:/NXP/bstudio_nxp/workspace/ZigBee-LightLink-Test-1/Light_ColorTemperatureLight/Build/zpr_light_node.o (symbol from plugin) (PDM_vDeleteDataRecord)
c:/NXP/bstudio_nxp/sdk/JN-SW-4168/Components/Library\libPDM_EEPROM_JN516x.a(PDM_FileSystemGenerate.o)
                              PDM_Create.o (symbol from plugin) (vPDM_GenerateCleanFileSystem)
c:/NXP/bstudio_nxp/sdk/JN-SW-4168/Components/Library\libPDM_EEPROM_JN516x.a(PDM_FileSystemHeaderAccessFunctions.o)
                              PDM_FileSystemData.o (symbol from plugin) (ePDM_ReadFileSystemHeaderCopyIndex)
c:/NXP/bstudio_nxp/sdk/JN-SW-4168/Components/Library\libPDM_EEPROM_JN516x.a(PDM_FileSystemHeaderRepair.o)
                              PDM_FileSystemGenerate.o (symbol from plugin) (iPDM_RepairFileSystemRecord)
c:/NXP/bstudio_nxp/sdk/JN-SW-4168/Components/Library\libPDM_EEPROM_JN516x.a(PDM_FileSystemHeaderVerify.o)
                              PDM_FileSystemHeaderRepair.o (symbol from plugin) (iPDM_ReCalculateWearCountAndChecksumAndWriteFileSystemHeader)
c:/NXP/bstudio_nxp/sdk/JN-SW-4168/Components/Library\libPDM_EEPROM_JN516x.a(PDM_FileSystemMove.o)
                              PDM_FileSystemDelete.o (symbol from plugin) (vPDM_MoveAllDataFromListToList)
c:/NXP/bstudio_nxp/sdk/JN-SW-4168/Components/Library\libPDM_EEPROM_JN516x.a(PDM_FileSystemVerify.o)
                              PDM_FileSystemGenerate.o (symbol from plugin) (iPDM_VerifyDataSequenceWithBufferId)
c:/NXP/bstudio_nxp/sdk/JN-SW-4168/Components/Library\libPDM_EEPROM_JN516x.a(PDM_ImageBitmapReconstruct.o)
                              PDM_FileSystemGenerate.o (symbol from plugin) (iPDM_ReconstructValidImageBitmap)
c:/NXP/bstudio_nxp/sdk/JN-SW-4168/Components/Library\libPDM_EEPROM_JN516x.a(PDM_SearchAndListOrder.o)
                              PDM_FileSystemGenerate.o (symbol from plugin) (vPDM_AddFileSystemElementToListInAscendingWearCountOrder)
c:/NXP/bstudio_nxp/sdk/JN-SW-4168/Components/Library\libPDM_EEPROM_JN516x.a(PDM_Segment.o)
                              PDM_FileSystemData.o (symbol from plugin) (iPDM_WriteSegmentHeaderAndData)
c:/NXP/bstudio_nxp/sdk/JN-SW-4168/Components/Library\libPDM_EEPROM_JN516x.a(PDM_SegmentData.o)
                              PDM_FileSystemVerify.o (symbol from plugin) (iPDM_ReadUserDataFromFileSystemRecord)
c:/NXP/bstudio_nxp/sdk/JN-SW-4168/Components/Library\libPDM_EEPROM_JN516x.a(PDM_SegmentReplace.o)
                              PDM_FileSystemGenerate.o (symbol from plugin) (iPDM_ReconstructReplacedDataTable)
c:/NXP/bstudio_nxp/sdk/JN-SW-4168/Components/Library\libPDM_EEPROM_JN516x.a(PDM_SegmentSequenceExtendDelete.o)
                              PDM_FileSystemData.o (symbol from plugin) (bPDM_IsSequenceAppended)
c:/NXP/bstudio_nxp/sdk/JN-SW-4168/Components/Library\libPDM_EEPROM_JN516x.a(PDM_SegmentSequenceExtendReconstruct.o)
                              PDM_FileSystemGenerate.o (symbol from plugin) (iPDM_ReconstructExtendedSegmentSequence)
c:/NXP/bstudio_nxp/sdk/JN-SW-4168/Components/Library\libPDM_EEPROM_JN516x.a(PDM_SegmentSequenceSave.o)
                              c:/NXP/bstudio_nxp/workspace/ZigBee-LightLink-Test-1/Light_ColorTemperatureLight/Build/app_scenes.o (symbol from plugin) (PDM_eSaveRecordData)
c:/NXP/bstudio_nxp/sdk/JN-SW-4168/Components/Library\libPDM_EEPROM_JN516x.a(PDM_slist.o)
                              PDM_Create.o (symbol from plugin) (vSLISTinitialise)
c:/NXP/bstudio_nxp/sdk/JN-SW-4168/Components/Library\libPDM_EEPROM_JN516x.a(PDM_WearLevelling.o)
                              PDM_FileSystem.o (symbol from plugin) (iPDM_GetWearLevelledBuffer)
c:/NXP/bstudio_nxp/sdk/JN-SW-4168/Components/Library\libPDM_EEPROM_JN516x.a(PDM_Bitmap.o)
                              PDM_FileSystemGenerate.o (symbol from plugin) (vPDM_ReconstructValidBitmap)
c:/NXP/bstudio_nxp/sdk/JN-SW-4168/Components/Library\libPDM_EEPROM_JN516x.a(PDM_EEPROMheaderAccessFunctions.o)
                              PDM_FileSystemDelete.o (symbol from plugin) (vPDM_SetEEPROMandFileSystemValidState)
c:/NXP/bstudio_nxp/sdk/JN-SW-4168/Components/Library\libPDM_EEPROM_JN516x.a(PDM_EEPROMheaderReadAndWrite.o)
                              PDM_EEPROMsegmentStatus.o (symbol from plugin) (iPDM_ReadSegmentHeaderDataFromEEPROMsegment)
c:/NXP/bstudio_nxp/sdk/JN-SW-4168/Components/Library\libPDM_EEPROM_JN516x.a(PDM_EEPROMReadAndWrite.o)
                              PDM_FileSystemGenerate.o (symbol from plugin) (iPDM_ReadUserDataFromEEPROMsegment)
c:/NXP/bstudio_nxp/sdk/JN-SW-4168/Components/Library\libPDM_EEPROM_JN516x.a(PDM_FileSystemHeaderChecksum.o)
                              PDM_FileSystemHeaderVerify.o (symbol from plugin) (u16PDM_CalculateRecordChecksum)
c:/NXP/bstudio_nxp/sdk/JN-SW-4168/Components/Library\libPDM_EEPROM_JN516x.a(PDM_SegmentSequenceExtendFilter.o)
                              PDM_SegmentSequenceExtendReconstruct.o (symbol from plugin) (vPDM_FilterDuplicateAppendedSegmentsFromList)
c:/NXP/bstudio_nxp/sdk/JN-SW-4168/Components/Library\libPDM_EEPROM_JN516x.a(PDM_EEPROM.o)
                              PDM_EEPROMheaderReadAndWrite.o (symbol from plugin) (bPDM_InitialiseEEPROM)
c:/NXP/bstudio_nxp/sdk/JN-SW-4168/Components/Library\libDBG_JN516x.a(dbg.o)
                              c:/NXP/bstudio_nxp/workspace/ZigBee-LightLink-Test-1/Light_ColorTemperatureLight/Build/app_start_light.o (symbol from plugin) (DBG_vReset)
c:/NXP/bstudio_nxp/sdk/JN-SW-4168/Components/Library\libDBG_JN516x.a(dbg_uart.o)
                              c:/NXP/bstudio_nxp/workspace/ZigBee-LightLink-Test-1/Light_ColorTemperatureLight/Build/app_start_light.o (symbol from plugin) (DBG_vUartInit)
c:/NXP/bstudio_nxp/sdk/JN-SW-4168/Components/Library\libDBG_JN516x.a(dbg_exceptions.o)
                              c:/NXP/bstudio_nxp/workspace/ZigBee-LightLink-Test-1/Light_ColorTemperatureLight/Build/app_start_light.o (symbol from plugin) (DBG_vDumpStack)
c:/NXP/bstudio_nxp/sdk/JN-SW-4168/Components/Library\libZPSZLL_JN516x.a(zps_apl_zll.o)
                              c:/NXP/bstudio_nxp/workspace/ZigBee-LightLink-Test-1/Light_ColorTemperatureLight/Build/zps_gen.o (symbol from plugin) (zps_vAfInterPanInit)
c:/NXP/bstudio_nxp/sdk/JN-SW-4168/Components/Library\libZPSZLL_JN516x.a(zps_apl_options.o)
                              zps_apl_zll.o (symbol from plugin) (ZPS_vRegisterInterPanHandlers)
c:/NXP/bstudio_nxp/sdk/JN-SW-4168/Components/Library\libZPSNWK_JN516x.a(zps_nwk_dcim.o)
                              zps_apl_task.o (symbol from plugin) (ZPS_vNwkRegisterNlmeDcfmIndCallbacks)
c:/NXP/bstudio_nxp/sdk/JN-SW-4168/Components/Library\libZPSNWK_JN516x.a(zps_nwk_lib.o)
                              c:/NXP/bstudio_nxp/workspace/ZigBee-LightLink-Test-1/Light_ColorTemperatureLight/Build/app_light_commission_task.o (symbol from plugin) (zps_vInitBeaconPayload)
c:/NXP/bstudio_nxp/sdk/JN-SW-4168/Components/Library\libZPSNWK_JN516x.a(zps_nwk_lkst.o)
                              zps_apl_mac_isr.o (symbol from plugin) (zps_u8CalcLinkCost)
c:/NXP/bstudio_nxp/sdk/JN-SW-4168/Components/Library\libZPSNWK_JN516x.a(zps_nwk_main.o)
                              zps_apl_zdo_nwkmanager.o (symbol from plugin) (ZPS_pvNwkCtor)
c:/NXP/bstudio_nxp/sdk/JN-SW-4168/Components/Library\libZPSNWK_JN516x.a(zps_nwk_maint.o)
                              zps_apl_sec.o (symbol from plugin) (zps_bNwkFindAddIeeeAddr)
c:/NXP/bstudio_nxp/sdk/JN-SW-4168/Components/Library\libZPSNWK_JN516x.a(zps_nwk_mcps.o)
                              zps_nwk_main.o (symbol from plugin) (zps_vNwkMcpsMgrInit)
c:/NXP/bstudio_nxp/sdk/JN-SW-4168/Components/Library\libZPSNWK_JN516x.a(zps_nwk_mlme.o)
                              zps_apl_task.o (symbol from plugin) (ZPS_vNwkHandleMlmeDcfmInd)
c:/NXP/bstudio_nxp/sdk/JN-SW-4168/Components/Library\libZPSNWK_JN516x.a(zps_nwk_nib.o)
                              c:/NXP/bstudio_nxp/workspace/ZigBee-LightLink-Test-1/Light_ColorTemperatureLight/Build/zpr_light_node.o (symbol from plugin) (ZPS_psNwkNibGetHandle)
c:/NXP/bstudio_nxp/sdk/JN-SW-4168/Components/Library\libZPSNWK_JN516x.a(zps_nwk_nlde.o)
                              zps_apl_af_apsde.o (symbol from plugin) (ZPS_vNwkHandleNldeReqRsp)
c:/NXP/bstudio_nxp/sdk/JN-SW-4168/Components/Library\libZPSNWK_JN516x.a(zps_nwk_nlme.o)
                              zps_apl_apsde.o (symbol from plugin) (ZPS_vNwkHandleNlmeReqRsp)
c:/NXP/bstudio_nxp/sdk/JN-SW-4168/Components/Library\libZPSNWK_JN516x.a(zps_nwk_pmjn.o)
                              zps_nwk_main.o (symbol from plugin) (zps_vNwkPermitJoiningInit)
c:/NXP/bstudio_nxp/sdk/JN-SW-4168/Components/Library\libZPSNWK_JN516x.a(zps_nwk_rt.o)
                              zps_nwk_nib.o (symbol from plugin) (zps_vExpireOldRoutes)
c:/NXP/bstudio_nxp/sdk/JN-SW-4168/Components/Library\libZPSNWK_JN516x.a(zps_nwk_sec.o)
                              zps_apl_sec.o (symbol from plugin) (ZPS_bSecEncrypt)
c:/NXP/bstudio_nxp/sdk/JN-SW-4168/Components/Library\libZPSNWK_JN516x.a(zps_nwk_slist.o)
                              zps_nwk_mcps.o (symbol from plugin) (zps_vNwkSlistInit)
c:/NXP/bstudio_nxp/sdk/JN-SW-4168/Components/Library\libZPSNWK_JN516x.a(zps_nwk_actv_st.o)
                              zps_nwk_main.o (symbol from plugin) (zps_eNwkActvStInit)
c:/NXP/bstudio_nxp/sdk/JN-SW-4168/Components/Library\libZPSNWK_JN516x.a(zps_nwk_btt.o)
                              zps_nwk_main.o (symbol from plugin) (zps_vNwkBttMgrInit)
c:/NXP/bstudio_nxp/sdk/JN-SW-4168/Components/Library\libZPSNWK_JN516x.a(zps_nwk_disc.o)
                              zps_nwk_actv_st.o (symbol from plugin) (zps_vNwkHandleCmeNwkDiscReq)
c:/NXP/bstudio_nxp/sdk/JN-SW-4168/Components/Library\libZPSNWK_JN516x.a(zps_nwk_disc_st.o)
                              zps_nwk_main.o (symbol from plugin) (zps_eNwkDiscStInit)
c:/NXP/bstudio_nxp/sdk/JN-SW-4168/Components/Library\libZPSNWK_JN516x.a(zps_nwk_form_st.o)
                              zps_nwk_main.o (symbol from plugin) (zps_eNwkFormStInit)
c:/NXP/bstudio_nxp/sdk/JN-SW-4168/Components/Library\libZPSNWK_JN516x.a(zps_nwk_frm.o)
                              zps_nwk_mcps.o (symbol from plugin) (zps_eDefaultDataDcfm)
c:/NXP/bstudio_nxp/sdk/JN-SW-4168/Components/Library\libZPSNWK_JN516x.a(zps_nwk_idle_st.o)
                              zps_nwk_nlme.o (symbol from plugin) (zps_vNwkIdleStHandleCme)
c:/NXP/bstudio_nxp/sdk/JN-SW-4168/Components/Library\libZPSNWK_JN516x.a(zps_nwk_join.o)
                              zps_nwk_actv_st.o (symbol from plugin) (zps_vNwkHandleCmeDirectJoinReq)
c:/NXP/bstudio_nxp/sdk/JN-SW-4168/Components/Library\libZPSNWK_JN516x.a(zps_nwk_join_st.o)
                              zps_nwk_join.o (symbol from plugin) (zps_vNwkJoinStStartResponseTimer)
c:/NXP/bstudio_nxp/sdk/JN-SW-4168/Components/Library\libZPSNWK_JN516x.a(zps_nwk_leave.o)
                              zps_nwk_actv_st.o (symbol from plugin) (zps_eNwkHandleSceLeave)
c:/NXP/bstudio_nxp/sdk/JN-SW-4168/Components/Library\libZPSNWK_JN516x.a(zps_nwk_mac.o)
                              zps_nwk_maint.o (symbol from plugin) (MAC_u64GetExtAddr)
c:/NXP/bstudio_nxp/sdk/JN-SW-4168/Components/Library\libZPSNWK_JN516x.a(zps_nwk_scan.o)
                              zps_nwk_disc.o (symbol from plugin) (zps_sNwkLibSubmitScan)
c:/NXP/bstudio_nxp/sdk/JN-SW-4168/Components/Library\libZPSNWK_JN516x.a(zps_nwk_sync.o)
                              zps_nwk_actv_st.o (symbol from plugin) (zps_vNwkHandleCmeSyncReq)
c:/NXP/bstudio_nxp/sdk/JN-SW-4168/Components/Library\libZPSNWK_JN516x.a(zps_nwk_form.o)
                              zps_nwk_idle_st.o (symbol from plugin) (zps_vNwkHandleCmeIdleNwkFormReq)
c:/NXP/bstudio_nxp/sdk/JN-SW-4168/Components/Library\libRecal_JN516x.a(JN5148ReCal.o)
                              c:/NXP/bstudio_nxp/workspace/ZigBee-LightLink-Test-1/Light_ColorTemperatureLight/Build/app_manage_temperature.o (symbol from plugin) (eAHI_AttemptCalibration)
c:/NXP/bstudio_nxp/sdk/JN-SW-4168/Components/Library\libMiniMac_JN516x.a(Mini_Main.o)
                              zps_apl_zdo_nwkmanager.o (symbol from plugin) (sMiniMacPib)
c:/NXP/bstudio_nxp/sdk/JN-SW-4168/Components/Library\libMiniMac_JN516x.a(Mini_Mcps.o)
                              Mini_Main.o (symbol from plugin) (psGetTxFrameBuffer)
c:/NXP/bstudio_nxp/sdk/JN-SW-4168/Components/Library\libMiniMac_JN516x.a(Mini_TimerServer.o)
                              Mini_Main.o (symbol from plugin) (vTimerFired)
c:/NXP/bstudio_nxp/sdk/JN-SW-4168/Components/Library\libMiniMac_JN516x.a(Mini_TxRx.o)
                              Mini_Mcps.o (symbol from plugin) (vAddToTxQueue)
c:/NXP/bstudio_nxp/sdk/JN-SW-4168/Components/Library\libMiniMac_JN516x.a(Endian.o)
                              Mini_Main.o (symbol from plugin) (vFromU16ToLe)
c:/NXP/bstudio_nxp/sdk/JN-SW-4168/Components/Library\libMiniMac_JN516x.a(Mini_Association.o)
                              Mini_TxRx.o (symbol from plugin) (vAssociatingRxCallback)
c:/NXP/bstudio_nxp/sdk/JN-SW-4168/Components/Library\libMiniMac_JN516x.a(Mini_Running.o)
                              Mini_TxRx.o (symbol from plugin) (bRadioDoze)
c:/NXP/bstudio_nxp/sdk/JN-SW-4168/Components/Library\libMiniMac_JN516x.a(Mini_Scan.o)
                              Mini_Running.o (symbol from plugin) (vScanOrphanReceived)
c:/NXP/bstudio_nxp/sdk/JN-SW-4168/Components/Library\libMiniMac_JN516x.a(Mini_Poll.o)
                              Mini_Running.o (symbol from plugin) (vMiniMacPoll_CheckPollResponse)
c:/NXP/bstudio_nxp/sdk/JN-SW-4168/Components/Library\libMiniMacShim_JN516x.a(Mini_Shim.o)
                              c:/NXP/bstudio_nxp/workspace/ZigBee-LightLink-Test-1/Light_ColorTemperatureLight/Build/app_light_commission_task.o (symbol from plugin) (eAppApiDefPlmeSet)
c:/NXP/bstudio_nxp/sdk/JN-SW-4168/Components/Library\libMMAC_JN516x.a(MMAC.o)
                              Mini_Main.o (symbol from plugin) (vMMAC_Enable)
c:/NXP/bstudio_nxp/sdk/JN-SW-4168/Components/Library\libMMAC_JN516x.a(MMAC_RadioInit_JN516x.o)
                              Mini_Main.o (symbol from plugin) (vMMAC_ConfigureRadio)
c:/NXP/bstudio_nxp/sdk/JN-SW-4168/Components/Library\libAes_JN516x.a(AEScoprocessorAPI.o)
                              zps_nwk_sec.o (symbol from plugin) (bACI_WriteKey)
c:/NXP/bstudio_nxp/sdk/JN-SW-4168/Components/Library\libAes_JN516x.a(AEScoprocessorECB.o)
                              c:/NXP/bstudio_nxp/workspace/ZigBee-LightLink-Test-1/Light_ColorTemperatureLight/Build/app_light_commission_task.o (symbol from plugin) (bACI_ECBencodeStripe)
c:/NXP/bstudio_nxp/sdk/JN-SW-4168/Components/Library\libAes_JN516x.a(AES_CCM_Star.o)
                              zps_nwk_sec.o (symbol from plugin) (vACI_OptimisedCcmStar)
c:/NXP/bstudio_nxp/sdk/JN-SW-4168/Components/Library\libHardwareApi_JN516x.a(AHI_Analogue.o)
                              c:/NXP/bstudio_nxp/workspace/ZigBee-LightLink-Test-1/Light_ColorTemperatureLight/Build/app_manage_temperature.o (symbol from plugin) (bAHI_APRegulatorEnabled)
c:/NXP/bstudio_nxp/sdk/JN-SW-4168/Components/Library\libHardwareApi_JN516x.a(AHI_Dio.o)
                              c:/NXP/bstudio_nxp/workspace/ZigBee-LightLink-Test-1/Light_ColorTemperatureLight/Build/DriverBulb_DR1221_Dimic.o (symbol from plugin) (vAHI_DioSetDirection)
c:/NXP/bstudio_nxp/sdk/JN-SW-4168/Components/Library\libHardwareApi_JN516x.a(AHI_Reset.o)
                              c:/NXP/bstudio_nxp/workspace/ZigBee-LightLink-Test-1/Light_ColorTemperatureLight/Build/app_start_light.o (symbol from plugin) (vAHI_SwReset)
c:/NXP/bstudio_nxp/sdk/JN-SW-4168/Components/Library\libHardwareApi_JN516x.a(AHI_System.o)
                              pwrm_cold_start.o (symbol from plugin) (u8AHI_PowerStatus)
c:/NXP/bstudio_nxp/sdk/JN-SW-4168/Components/Library\libHardwareApi_JN516x.a(AHI_Timer.o)
                              c:/NXP/bstudio_nxp/workspace/ZigBee-LightLink-Test-1/Light_ColorTemperatureLight/Build/DriverBulb_DR1221_Dimic.o (symbol from plugin) (vAHI_TimerEnable)
c:/NXP/bstudio_nxp/sdk/JN-SW-4168/Components/Library\libHardwareApi_JN516x.a(AHI_TimerInt.o)
                              AHI_System.o (symbol from plugin) (vAHI_Timer0RegisterCallback)
c:/NXP/bstudio_nxp/sdk/JN-SW-4168/Components/Library\libHardwareApi_JN516x.a(AHI_Uart.o)
                              dbg_uart.o (symbol from plugin) (vAHI_UartSetClockDivisor)
c:/NXP/bstudio_nxp/sdk/JN-SW-4168/Components/Library\libHardwareApi_JN516x.a(AHI_WakeTimer.o)
                              pwrm.o (symbol from plugin) (vAHI_WakeTimerEnable)
c:/NXP/bstudio_nxp/sdk/JN-SW-4168/Components/Library\libHardwareApi_JN516x.a(AHI_Flash.o)
                              AHI_System.o (symbol from plugin) (vAHI_FlashAndEEPROMControllerIntHandler)
c:/NXP/bstudio_nxp/sdk/JN-SW-4168/Components/Library\libHardwareApi_JN516x.a(AHI_Infrared.o)
                              AHI_TimerInt.o (symbol from plugin) (vAHI_IntHandlerInfrared)
c:/NXP/bstudio_nxp/sdk/JN-SW-4168/Components/Library\libHardwareApi_JN516x.a(InternalFlashApi.o)
                              AHI_Flash.o (symbol from plugin) (bFlashErase)
c:/NXP/bstudio_nxp/sdk/JN-SW-4168/Components/Library\libHardwareApi_JN516x.a(EEP_EEPROM.o)
                              PDM_Create.o (symbol from plugin) (u16AHI_InitialiseEEP)
c:/NXP/bstudio_nxp/sdk/JN-SW-4168/Components/Library\libHardwareApi_JN516x.a(AHI_TickTimer.o)
                              c:/NXP/bstudio_nxp/workspace/ZigBee-LightLink-Test-1/Light_ColorTemperatureLight/Build/app_timer_driver.o (symbol from plugin) (vAHI_TickTimerIntPendClr)
c:/NXP/bstudio_nxp/sdk/JN-SW-4168/Components/Library\libHardwareApi_JN516x.a(AHI_Interrupt.o)
                              MMAC.o (symbol from plugin) (vAHI_InterruptSetPriority)
c:/NXP/bstudio_nxp/sdk/JN-SW-4168/Components/Library\libHardwareApi_JN516x.a(AHI_Spi.o)
                              AHI_Flash.o (symbol from plugin) (vAHI_SpiConfigure)
c:/NXP/bstudio_nxp/sdk/JN-SW-4168/Components/Library\libMicroSpecific_JN516x.a(MicroInt_ba.o)
                              Mini_Main.o (symbol from plugin) (vMicroIntEnableOnly)
c:/NXP/bstudio_nxp/sdk/JN-SW-4168/Components/Library\libMicroSpecific_JN516x.a(MicroSyscall_ba.o)
                              AHI_Reset.o (symbol from plugin) (vMicroSyscall)
c:/NXP/bstudio_nxp/sdk/JN-SW-4168/Components/Library\libBoot_JN516x.a(Heap.o)
                              (u32HeapStart)
c:/NXP/bstudio_nxp/sdk/JN-SW-4168/Components/Library\libBoot_JN516x.a(ExceptionHandler.o)
                              MMAC.o (symbol from plugin) (isr_handlers)
c:/NXP/bstudio_nxp/sdk/JN-SW-4168/Components/Library\libZPSMAC_Mini_JN516x.a(zps_miniMac.o)
                              zps_apl_mac_isr.o (symbol from plugin) (ZPS_vMiniMacShimInit)
c:/NXP/bstudio_nxp/sdk/JN-SW-4168/Components/Library\libZPSTSV_JN516x.a(zps_tsv.o)
                              zps_apl_zdo_nwkmanager.o (symbol from plugin) (ZPS_vTsvInit)
c:/NXP/bstudio_nxp/sdk/JN-SW-4168/Components/Library\libAES_SW_JN516x.a(aes_sw_hmac_mmo.o)
                              zps_apl_sec.o (symbol from plugin) (AESSW_vHMAC_MMO)
c:/NXP/bstudio_nxp/sdk/JN-SW-4168/Components/Library\libAES_SW_JN516x.a(aes_sw_mmo.o)
                              aes_sw_hmac_mmo.o (symbol from plugin) (AESSW_vMMOBlockUpdate)
c:/NXP/bstudio_nxp/sdk/JN-SW-4168/Components/Library\libZPSAPL_JN516x.a(zps_apl_inl.o)
                              zps_nwk_join.o (symbol from plugin) (ZPS_pvAplZdoGetAplHandle)
c:/NXP/bstudio_nxp/sdk/JN-SW-4168/Components/Library\libZPSAPL_JN516x.a(zps_apl_zdo_bind_manager.o)
                              zps_apl_inl.o (symbol from plugin) (zps_eAplZdoBind)
c:/NXP/bstudio_nxp/sdk/JN-SW-4168/Components/Library\libZPSAPL_JN516x.a(zps_apl_zdp_active_ep_req.o)
                              zps_apl_inl.o (symbol from plugin) (zps_eAplZdpActiveEpRequest)
c:/NXP/bstudio_nxp/sdk/JN-SW-4168/Components/Library\libZPSAPL_JN516x.a(zps_apl_zdp_active_ep_store_req.o)
                              zps_apl_inl.o (symbol from plugin) (zps_eAplZdpActiveEpStoreRequest)
c:/NXP/bstudio_nxp/sdk/JN-SW-4168/Components/Library\libZPSAPL_JN516x.a(zps_apl_zdp_backup_source_bind_req.o)
                              zps_apl_inl.o (symbol from plugin) (zps_eAplZdpBackupSourceBindRequest)
c:/NXP/bstudio_nxp/sdk/JN-SW-4168/Components/Library\libZPSAPL_JN516x.a(zps_apl_zdp_bind_register_req.o)
                              zps_apl_inl.o (symbol from plugin) (zps_eAplZdpBindRegisterRequest)
c:/NXP/bstudio_nxp/sdk/JN-SW-4168/Components/Library\libZPSAPL_JN516x.a(zps_apl_zdp_bind_unbind_req.o)
                              zps_apl_inl.o (symbol from plugin) (zps_eAplZdpBindUnbindRequest)
c:/NXP/bstudio_nxp/sdk/JN-SW-4168/Components/Library\libZPSAPL_JN516x.a(zps_apl_zdp_bkup_bind_table_req.o)
                              zps_apl_inl.o (symbol from plugin) (zps_eAplZdpBackupBindTableRequest)
c:/NXP/bstudio_nxp/sdk/JN-SW-4168/Components/Library\libZPSAPL_JN516x.a(zps_apl_zdp_complex_desc_req.o)
                              zps_apl_inl.o (symbol from plugin) (zps_eAplZdpComplexDescRequest)
c:/NXP/bstudio_nxp/sdk/JN-SW-4168/Components/Library\libZPSAPL_JN516x.a(zps_apl_zdp_discovery_cache_req.o)
                              zps_apl_inl.o (symbol from plugin) (zps_eAplZdpDiscoveryCacheRequest)
c:/NXP/bstudio_nxp/sdk/JN-SW-4168/Components/Library\libZPSAPL_JN516x.a(zps_apl_zdp_discovery_store_req.o)
                              zps_apl_inl.o (symbol from plugin) (zps_eAplZdpDiscoveryStoreRequest)
c:/NXP/bstudio_nxp/sdk/JN-SW-4168/Components/Library\libZPSAPL_JN516x.a(zps_apl_zdp_end_device_bind_req.o)
                              zps_apl_inl.o (symbol from plugin) (zps_eAplZdpEndDeviceBindRequest)
c:/NXP/bstudio_nxp/sdk/JN-SW-4168/Components/Library\libZPSAPL_JN516x.a(zps_apl_zdp_extended_active_ep_req.o)
                              zps_apl_inl.o (symbol from plugin) (zps_eAplZdpExtendedActiveEpRequest)
c:/NXP/bstudio_nxp/sdk/JN-SW-4168/Components/Library\libZPSAPL_JN516x.a(zps_apl_zdp_extended_simple_desc_req.o)
                              zps_apl_inl.o (symbol from plugin) (zps_eAplZdpExtendedSimpleDescRequest)
c:/NXP/bstudio_nxp/sdk/JN-SW-4168/Components/Library\libZPSAPL_JN516x.a(zps_apl_zdp_find_node_cache_req.o)
                              zps_apl_inl.o (symbol from plugin) (zps_eAplZdpFindNodeCacheRequest)
c:/NXP/bstudio_nxp/sdk/JN-SW-4168/Components/Library\libZPSAPL_JN516x.a(zps_apl_zdp_ieee_addr_req.o)
                              zps_apl_inl.o (symbol from plugin) (zps_eAplZdpIeeeAddrRequest)
c:/NXP/bstudio_nxp/sdk/JN-SW-4168/Components/Library\libZPSAPL_JN516x.a(zps_apl_zdp_match_desc_req.o)
                              zps_apl_inl.o (symbol from plugin) (zps_eAplZdpMatchDescRequest)
c:/NXP/bstudio_nxp/sdk/JN-SW-4168/Components/Library\libZPSAPL_JN516x.a(zps_apl_zdp_mgmt_bind_req.o)
                              zps_apl_inl.o (symbol from plugin) (zps_eAplZdpMgmtBindRequest)
c:/NXP/bstudio_nxp/sdk/JN-SW-4168/Components/Library\libZPSAPL_JN516x.a(zps_apl_zdp_mgmt_cache_req.o)
                              zps_apl_inl.o (symbol from plugin) (zps_eAplZdpMgmtCacheRequest)
c:/NXP/bstudio_nxp/sdk/JN-SW-4168/Components/Library\libZPSAPL_JN516x.a(zps_apl_zdp_mgmt_direct_join_req.o)
                              zps_apl_inl.o (symbol from plugin) (zps_eAplZdpMgmtDirectJoinRequest)
c:/NXP/bstudio_nxp/sdk/JN-SW-4168/Components/Library\libZPSAPL_JN516x.a(zps_apl_zdp_mgmt_leave_req.o)
                              zps_apl_inl.o (symbol from plugin) (zps_eAplZdpMgmtLeaveRequest)
c:/NXP/bstudio_nxp/sdk/JN-SW-4168/Components/Library\libZPSAPL_JN516x.a(zps_apl_zdp_mgmt_lqi_req.o)
                              zps_apl_inl.o (symbol from plugin) (zps_eAplZdpMgmtLqiRequest)
c:/NXP/bstudio_nxp/sdk/JN-SW-4168/Components/Library\libZPSAPL_JN516x.a(zps_apl_zdp_mgmt_nwk_disc_req.o)
                              zps_apl_inl.o (symbol from plugin) (zps_eAplZdpMgmtNwkDiscRequest)
c:/NXP/bstudio_nxp/sdk/JN-SW-4168/Components/Library\libZPSAPL_JN516x.a(zps_apl_zdp_mgmt_nwk_update_req.o)
                              zps_apl_inl.o (symbol from plugin) (zps_eAplZdpMgmtNwkUpdateRequest)
c:/NXP/bstudio_nxp/sdk/JN-SW-4168/Components/Library\libZPSAPL_JN516x.a(zps_apl_zdp_mgmt_permit_joining_req.o)
                              zps_apl_inl.o (symbol from plugin) (zps_eAplZdpMgmtPermitJoiningRequest)
c:/NXP/bstudio_nxp/sdk/JN-SW-4168/Components/Library\libZPSAPL_JN516x.a(zps_apl_zdp_mgmt_rtg_req.o)
                              zps_apl_inl.o (symbol from plugin) (zps_eAplZdpMgmtRtgRequest)
c:/NXP/bstudio_nxp/sdk/JN-SW-4168/Components/Library\libZPSAPL_JN516x.a(zps_apl_zdp_node_desc_req.o)
                              zps_apl_inl.o (symbol from plugin) (zps_eAplZdpNodeDescRequest)
c:/NXP/bstudio_nxp/sdk/JN-SW-4168/Components/Library\libZPSAPL_JN516x.a(zps_apl_zdp_nwk_addr_req.o)
                              zps_apl_inl.o (symbol from plugin) (zps_eAplZdpNwkAddrRequest)
c:/NXP/bstudio_nxp/sdk/JN-SW-4168/Components/Library\libZPSAPL_JN516x.a(zps_apl_zdp_power_desc_req.o)
                              zps_apl_inl.o (symbol from plugin) (zps_eAplZdpPowerDescRequest)
c:/NXP/bstudio_nxp/sdk/JN-SW-4168/Components/Library\libZPSAPL_JN516x.a(zps_apl_zdp_power_desc_store_req.o)
                              zps_apl_inl.o (symbol from plugin) (zps_eAplZdpPowerDescStoreRequest)
c:/NXP/bstudio_nxp/sdk/JN-SW-4168/Components/Library\libZPSAPL_JN516x.a(zps_apl_zdp_recover_bind_table_req.o)
                              zps_apl_inl.o (symbol from plugin) (zps_eAplZdpRecoverBindTableRequest)
c:/NXP/bstudio_nxp/sdk/JN-SW-4168/Components/Library\libZPSAPL_JN516x.a(zps_apl_zdp_recover_source_bind_req.o)
                              zps_apl_inl.o (symbol from plugin) (zps_eAplZdpRecoverSourceBindRequest)
c:/NXP/bstudio_nxp/sdk/JN-SW-4168/Components/Library\libZPSAPL_JN516x.a(zps_apl_zdp_remove_bkup_bind_entry_req.o)
                              zps_apl_inl.o (symbol from plugin) (zps_eAplZdpRemoveBkupBindEntryRequest)
c:/NXP/bstudio_nxp/sdk/JN-SW-4168/Components/Library\libZPSAPL_JN516x.a(zps_apl_zdp_remove_node_cache_req.o)
                              zps_apl_inl.o (symbol from plugin) (zps_eAplZdpRemoveNodeCacheRequest)
c:/NXP/bstudio_nxp/sdk/JN-SW-4168/Components/Library\libZPSAPL_JN516x.a(zps_apl_zdp_replace_device_req.o)
                              zps_apl_inl.o (symbol from plugin) (zps_eAplZdpReplaceDeviceRequest)
c:/NXP/bstudio_nxp/sdk/JN-SW-4168/Components/Library\libZPSAPL_JN516x.a(zps_apl_zdp_simple_desc_req.o)
                              zps_apl_inl.o (symbol from plugin) (zps_eAplZdpSimpleDescRequest)
c:/NXP/bstudio_nxp/sdk/JN-SW-4168/Components/Library\libZPSAPL_JN516x.a(zps_apl_zdp_simple_desc_store_req.o)
                              zps_apl_inl.o (symbol from plugin) (zps_eAplZdpSimpleDescStoreRequest)
c:/NXP/bstudio_nxp/sdk/JN-SW-4168/Components/Library\libZPSAPL_JN516x.a(zps_apl_zdp_system_server_discovery_req.o)
                              zps_apl_inl.o (symbol from plugin) (zps_eAplZdpSystemServerDiscoveryRequest)
c:/NXP/bstudio_nxp/sdk/JN-SW-4168/Components/Library\libZPSAPL_JN516x.a(zps_apl_zdp_store_bkup_bind_entry_req.o)
                              zps_apl_inl.o (symbol from plugin) (zps_eAplZdpStoreBkupBindEntryRequest)
c:/NXP/bstudio_nxp/sdk/JN-SW-4168/Components/Library\libZPSAPL_JN516x.a(zps_apl_zdp_node_desc_store_req.o)
                              zps_apl_inl.o (symbol from plugin) (zps_eAplZdpNodeDescStoreRequest)
c:/NXP/bstudio_nxp/sdk/JN-SW-4168/Components/Library\libZPSAPL_JN516x.a(zps_apl_zdp_user_desc_req.o)
                              zps_apl_inl.o (symbol from plugin) (zps_eAplZdpUserDescRequest)
c:/NXP/bstudio_nxp/sdk/JN-SW-4168/Components/Library\libZPSAPL_JN516x.a(zps_apl_zdp_user_desc_set.o)
                              zps_apl_inl.o (symbol from plugin) (zps_eAplZdpUserDescSetRequest)
c:/nxp/bstudio_nxp/sdk/tools/ba-elf-ba2-r36379/bin/../lib/gcc/ba-elf/4.7.4/../../../../ba-elf/lib/mcpu_jn51xx_sizeopt\libc.a(lib_a-memcmp.o)
                              C:\Users\brend\AppData\Local\Temp\ccheh5G2.ltrans1.ltrans.o (memcmp)
c:/nxp/bstudio_nxp/sdk/tools/ba-elf-ba2-r36379/bin/../lib/gcc/ba-elf/4.7.4/../../../../ba-elf/lib/mcpu_jn51xx_sizeopt\libc.a(lib_a-memcpy.o)
                              C:\Users\brend\AppData\Local\Temp\ccheh5G2.ltrans0.ltrans.o (memcpy)
c:/nxp/bstudio_nxp/sdk/tools/ba-elf-ba2-r36379/bin/../lib/gcc/ba-elf/4.7.4/../../../../ba-elf/lib/mcpu_jn51xx_sizeopt\libc.a(lib_a-memset.o)
                              C:\Users\brend\AppData\Local\Temp\ccheh5G2.ltrans0.ltrans.o (memset)
c:/nxp/bstudio_nxp/sdk/tools/ba-elf-ba2-r36379/bin/../lib/gcc/ba-elf/4.7.4/../../../../ba-elf/lib/mcpu_jn51xx_sizeopt\libc.a(lib_a-strlen.o)
                              C:\Users\brend\AppData\Local\Temp\ccheh5G2.ltrans13.ltrans.o (strlen)
c:/nxp/bstudio_nxp/sdk/tools/ba-elf-ba2-r36379/bin/../lib/gcc/ba-elf/4.7.4/../../../../ba-elf/lib/mcpu_jn51xx_sizeopt\libc.a(lib_a-strncpy.o)
                              C:\Users\brend\AppData\Local\Temp\ccheh5G2.ltrans9.ltrans.o (strncpy)
c:/nxp/bstudio_nxp/sdk/tools/ba-elf-ba2-r36379/bin/../lib/gcc/ba-elf/4.7.4/mcpu_jn51xx_sizeopt\libgcc.a(__udivsi3.o)
                              C:\Users\brend\AppData\Local\Temp\ccheh5G2.ltrans8.ltrans.o (__udivsi3)
c:/nxp/bstudio_nxp/sdk/tools/ba-elf-ba2-r36379/bin/../lib/gcc/ba-elf/4.7.4/mcpu_jn51xx_sizeopt\libgcc.a(__divsi3.o)
                              C:\Users\brend\AppData\Local\Temp\ccheh5G2.ltrans3.ltrans.o (__divsi3)
c:/nxp/bstudio_nxp/sdk/tools/ba-elf-ba2-r36379/bin/../lib/gcc/ba-elf/4.7.4/mcpu_jn51xx_sizeopt\libgcc.a(__umodsi3.o)
                              C:\Users\brend\AppData\Local\Temp\ccheh5G2.ltrans8.ltrans.o (__umodsi3)
c:/nxp/bstudio_nxp/sdk/tools/ba-elf-ba2-r36379/bin/../lib/gcc/ba-elf/4.7.4/mcpu_jn51xx_sizeopt\libgcc.a(__modsi3.o)
                              C:\Users\brend\AppData\Local\Temp\ccheh5G2.ltrans8.ltrans.o (__modsi3)
c:/nxp/bstudio_nxp/sdk/tools/ba-elf-ba2-r36379/bin/../lib/gcc/ba-elf/4.7.4/mcpu_jn51xx_sizeopt\libgcc.a(_fixunsdfsi.o)
                              C:\Users\brend\AppData\Local\Temp\ccheh5G2.ltrans9.ltrans.o (__fixunsdfsi)
c:/nxp/bstudio_nxp/sdk/tools/ba-elf-ba2-r36379/bin/../lib/gcc/ba-elf/4.7.4/mcpu_jn51xx_sizeopt\libgcc.a(_divdi3.o)
                              C:\Users\brend\AppData\Local\Temp\ccheh5G2.ltrans3.ltrans.o (__divdi3)
c:/nxp/bstudio_nxp/sdk/tools/ba-elf-ba2-r36379/bin/../lib/gcc/ba-elf/4.7.4/mcpu_jn51xx_sizeopt\libgcc.a(_udivdi3.o)
                              C:\Users\brend\AppData\Local\Temp\ccheh5G2.ltrans3.ltrans.o (__udivdi3)
c:/nxp/bstudio_nxp/sdk/tools/ba-elf-ba2-r36379/bin/../lib/gcc/ba-elf/4.7.4/mcpu_jn51xx_sizeopt\libgcc.a(addsf3.o)
                              C:\Users\brend\AppData\Local\Temp\ccheh5G2.ltrans17.ltrans.o (__addsf3)
c:/nxp/bstudio_nxp/sdk/tools/ba-elf-ba2-r36379/bin/../lib/gcc/ba-elf/4.7.4/mcpu_jn51xx_sizeopt\libgcc.a(divsf3.o)
                              C:\Users\brend\AppData\Local\Temp\ccheh5G2.ltrans9.ltrans.o (__divsf3)
c:/nxp/bstudio_nxp/sdk/tools/ba-elf-ba2-r36379/bin/../lib/gcc/ba-elf/4.7.4/mcpu_jn51xx_sizeopt\libgcc.a(gesf2.o)
                              C:\Users\brend\AppData\Local\Temp\ccheh5G2.ltrans9.ltrans.o (__gesf2)
c:/nxp/bstudio_nxp/sdk/tools/ba-elf-ba2-r36379/bin/../lib/gcc/ba-elf/4.7.4/mcpu_jn51xx_sizeopt\libgcc.a(lesf2.o)
                              C:\Users\brend\AppData\Local\Temp\ccheh5G2.ltrans9.ltrans.o (__lesf2)
c:/nxp/bstudio_nxp/sdk/tools/ba-elf-ba2-r36379/bin/../lib/gcc/ba-elf/4.7.4/mcpu_jn51xx_sizeopt\libgcc.a(mulsf3.o)
                              C:\Users\brend\AppData\Local\Temp\ccheh5G2.ltrans9.ltrans.o (__mulsf3)
c:/nxp/bstudio_nxp/sdk/tools/ba-elf-ba2-r36379/bin/../lib/gcc/ba-elf/4.7.4/mcpu_jn51xx_sizeopt\libgcc.a(subsf3.o)
                              C:\Users\brend\AppData\Local\Temp\ccheh5G2.ltrans9.ltrans.o (__subsf3)
c:/nxp/bstudio_nxp/sdk/tools/ba-elf-ba2-r36379/bin/../lib/gcc/ba-elf/4.7.4/mcpu_jn51xx_sizeopt\libgcc.a(floatunsisf.o)
                              C:\Users\brend\AppData\Local\Temp\ccheh5G2.ltrans9.ltrans.o (__floatunsisf)
c:/nxp/bstudio_nxp/sdk/tools/ba-elf-ba2-r36379/bin/../lib/gcc/ba-elf/4.7.4/mcpu_jn51xx_sizeopt\libgcc.a(divdf3.o)
                              C:\Users\brend\AppData\Local\Temp\ccheh5G2.ltrans9.ltrans.o (__divdf3)
c:/nxp/bstudio_nxp/sdk/tools/ba-elf-ba2-r36379/bin/../lib/gcc/ba-elf/4.7.4/mcpu_jn51xx_sizeopt\libgcc.a(gedf2.o)
                              c:/nxp/bstudio_nxp/sdk/tools/ba-elf-ba2-r36379/bin/../lib/gcc/ba-elf/4.7.4/mcpu_jn51xx_sizeopt\libgcc.a(_fixunsdfsi.o) (__gedf2)
c:/nxp/bstudio_nxp/sdk/tools/ba-elf-ba2-r36379/bin/../lib/gcc/ba-elf/4.7.4/mcpu_jn51xx_sizeopt\libgcc.a(muldf3.o)
                              C:\Users\brend\AppData\Local\Temp\ccheh5G2.ltrans17.ltrans.o (__muldf3)
c:/nxp/bstudio_nxp/sdk/tools/ba-elf-ba2-r36379/bin/../lib/gcc/ba-elf/4.7.4/mcpu_jn51xx_sizeopt\libgcc.a(subdf3.o)
                              C:\Users\brend\AppData\Local\Temp\ccheh5G2.ltrans17.ltrans.o (__subdf3)
c:/nxp/bstudio_nxp/sdk/tools/ba-elf-ba2-r36379/bin/../lib/gcc/ba-elf/4.7.4/mcpu_jn51xx_sizeopt\libgcc.a(fixdfsi.o)
                              c:/nxp/bstudio_nxp/sdk/tools/ba-elf-ba2-r36379/bin/../lib/gcc/ba-elf/4.7.4/mcpu_jn51xx_sizeopt\libgcc.a(_fixunsdfsi.o) (__fixdfsi)
c:/nxp/bstudio_nxp/sdk/tools/ba-elf-ba2-r36379/bin/../lib/gcc/ba-elf/4.7.4/mcpu_jn51xx_sizeopt\libgcc.a(extendsfdf2.o)
                              C:\Users\brend\AppData\Local\Temp\ccheh5G2.ltrans9.ltrans.o (__extendsfdf2)
c:/nxp/bstudio_nxp/sdk/tools/ba-elf-ba2-r36379/bin/../lib/gcc/ba-elf/4.7.4/mcpu_jn51xx_sizeopt\libgcc.a(truncdfsf2.o)
                              C:\Users\brend\AppData\Local\Temp\ccheh5G2.ltrans17.ltrans.o (__truncdfsf2)
c:/NXP/bstudio_nxp/sdk/JN-SW-4168/Components/Library\libOS_JN516x.a(os_version_lc.o)
                              C:\Users\brend\AppData\Local\Temp\ccheh5G2.ltrans31.ltrans.o (OS_Version_1v2)
c:/NXP/bstudio_nxp/sdk/JN-SW-4168/Components/Library\libZPSAPL_JN516x.a(zps_apl_version_lc.o)
                              C:\Users\brend\AppData\Local\Temp\ccheh5G2.ltrans9.ltrans.o (ZPS_APL_Version_2v0)
c:/NXP/bstudio_nxp/sdk/JN-SW-4168/Components/Library\libZPSNWK_JN516x.a(zps_nwk_version_lc.o)
                              C:\Users\brend\AppData\Local\Temp\ccheh5G2.ltrans9.ltrans.o (ZPS_NWK_Version_2v0)

Allocating common symbols
Common symbol       size              file

in                  0x10              c:/NXP/bstudio_nxp/workspace/ZigBee-LightLink-Test-1/Light_ColorTemperatureLight/Build/ecb_decrypt.o (symbol from plugin)
bMiniMacConfig_DiscardUnsuccessfulAssocResponses
                    0x1               Mini_Association.o (symbol from plugin)
sStartParams        0x40              c:/NXP/bstudio_nxp/workspace/ZigBee-LightLink-Test-1/Light_ColorTemperatureLight/Build/app_light_commission_task.o (symbol from plugin)
out                 0x10              c:/NXP/bstudio_nxp/workspace/ZigBee-LightLink-Test-1/Light_ColorTemperatureLight/Build/ecb_decrypt.o (symbol from plugin)
g_tSpiConfiguration
                    0x4               AHI_Flash.o (symbol from plugin)
prMiniMacTofRxHandler
                    0x4               Mini_Running.o (symbol from plugin)
prTickTimeAppCallback
                    0x4               AHI_TickTimer.o (symbol from plugin)
sZllPDDesc          0x18              c:/NXP/bstudio_nxp/workspace/ZigBee-LightLink-Test-1/Light_ColorTemperatureLight/Build/app_light_commission_task.o (symbol from plugin)
sMiniMacSecurityPib
                    0xc               Mini_Main.o (symbol from plugin)
bRadioDoze          0x1               Mini_Running.o (symbol from plugin)
au8LevelControlServerAttributeControlBits
                    0x3               c:/NXP/bstudio_nxp/workspace/ZigBee-LightLink-Test-1/Light_ColorTemperatureLight/Build/LevelControl.o (symbol from plugin)
au8ScenesServerAttributeControlBits
                    0x6               c:/NXP/bstudio_nxp/workspace/ZigBee-LightLink-Test-1/Light_ColorTemperatureLight/Build/Scenes.o (symbol from plugin)
au8OnOffServerAttributeControlBits
                    0x4               c:/NXP/bstudio_nxp/workspace/ZigBee-LightLink-Test-1/Light_ColorTemperatureLight/Build/OnOff.o (symbol from plugin)
au8ColourControlServerAttributeControlBits
                    0x13              c:/NXP/bstudio_nxp/workspace/ZigBee-LightLink-Test-1/Light_ColorTemperatureLight/Build/ColourControl.o (symbol from plugin)
au8GroupsServerAttributeControlBits
                    0x1               c:/NXP/bstudio_nxp/workspace/ZigBee-LightLink-Test-1/Light_ColorTemperatureLight/Build/Groups.o (symbol from plugin)
bAHI_ExtendedTemperatureOperation
                    0x1               AHI_System.o (symbol from plugin)
prMiniMac_u32BbcIntCallback
                    0x4               Mini_Main.o (symbol from plugin)
au8IdentifyServerAttributeControlBits
                    0x1               c:/NXP/bstudio_nxp/workspace/ZigBee-LightLink-Test-1/Light_ColorTemperatureLight/Build/Identify.o (symbol from plugin)
g_bLegacyHwBugEmulation
                    0x1               AES_CCM_Star.o (symbol from plugin)
Key                 0x10              c:/NXP/bstudio_nxp/workspace/ZigBee-LightLink-Test-1/Light_ColorTemperatureLight/Build/ecb_decrypt.o (symbol from plugin)
au8BasicClusterAttributeControlBits
                    0x9               c:/NXP/bstudio_nxp/workspace/ZigBee-LightLink-Test-1/Light_ColorTemperatureLight/Build/Basic.o (symbol from plugin)
uAttributeVal       0x10              c:/NXP/bstudio_nxp/workspace/ZigBee-LightLink-Test-1/Light_ColorTemperatureLight/Build/zcl_readAttributesResponseHandle.o (symbol from plugin)

Discarded input sections

 .text          0x0000000000000000        0x0 c:/NXP/bstudio_nxp/workspace/ZigBee-LightLink-Test-1/Light_ColorTemperatureLight/Build/os_gen.o (symbol from plugin)
 .data          0x0000000000000000        0x0 C:\Users\brend\AppData\Local\Temp\ccheh5G2.ltrans2.ltrans.o
 .data          0x0000000000000000        0x0 C:\Users\brend\AppData\Local\Temp\ccheh5G2.ltrans4.ltrans.o
 .data          0x0000000000000000        0x0 C:\Users\brend\AppData\Local\Temp\ccheh5G2.ltrans5.ltrans.o
 .data          0x0000000000000000        0x0 C:\Users\brend\AppData\Local\Temp\ccheh5G2.ltrans6.ltrans.o
 .rodata        0x0000000000000000        0x4 C:\Users\brend\AppData\Local\Temp\ccheh5G2.ltrans6.ltrans.o
 .data          0x0000000000000000        0x0 C:\Users\brend\AppData\Local\Temp\ccheh5G2.ltrans7.ltrans.o
 .bss           0x0000000000000000        0x0 C:\Users\brend\AppData\Local\Temp\ccheh5G2.ltrans7.ltrans.o
 .data          0x0000000000000000        0x0 C:\Users\brend\AppData\Local\Temp\ccheh5G2.ltrans8.ltrans.o
 .bss           0x0000000000000000        0x0 C:\Users\brend\AppData\Local\Temp\ccheh5G2.ltrans9.ltrans.o
 .data          0x0000000000000000        0x0 C:\Users\brend\AppData\Local\Temp\ccheh5G2.ltrans10.ltrans.o
 .data          0x0000000000000000        0x0 C:\Users\brend\AppData\Local\Temp\ccheh5G2.ltrans11.ltrans.o
 .rodata        0x0000000000000000        0x4 C:\Users\brend\AppData\Local\Temp\ccheh5G2.ltrans11.ltrans.o
 .data          0x0000000000000000        0x0 C:\Users\brend\AppData\Local\Temp\ccheh5G2.ltrans12.ltrans.o
 .bss           0x0000000000000000        0x0 C:\Users\brend\AppData\Local\Temp\ccheh5G2.ltrans12.ltrans.o
 .data          0x0000000000000000        0x0 C:\Users\brend\AppData\Local\Temp\ccheh5G2.ltrans13.ltrans.o
 .bss           0x0000000000000000        0x0 C:\Users\brend\AppData\Local\Temp\ccheh5G2.ltrans13.ltrans.o
 .data          0x0000000000000000        0x0 C:\Users\brend\AppData\Local\Temp\ccheh5G2.ltrans15.ltrans.o
 .data          0x0000000000000000        0x0 C:\Users\brend\AppData\Local\Temp\ccheh5G2.ltrans17.ltrans.o
 .data          0x0000000000000000        0x0 C:\Users\brend\AppData\Local\Temp\ccheh5G2.ltrans19.ltrans.o
 .bss           0x0000000000000000        0x0 C:\Users\brend\AppData\Local\Temp\ccheh5G2.ltrans19.ltrans.o
 .data          0x0000000000000000        0x0 C:\Users\brend\AppData\Local\Temp\ccheh5G2.ltrans22.ltrans.o
 .data          0x0000000000000000        0x0 C:\Users\brend\AppData\Local\Temp\ccheh5G2.ltrans23.ltrans.o
 .rodata        0x0000000000000000       0x10 C:\Users\brend\AppData\Local\Temp\ccheh5G2.ltrans23.ltrans.o
 .data          0x0000000000000000        0x0 C:\Users\brend\AppData\Local\Temp\ccheh5G2.ltrans24.ltrans.o
 .rodata        0x0000000000000000        0x1 C:\Users\brend\AppData\Local\Temp\ccheh5G2.ltrans24.ltrans.o
 .data          0x0000000000000000        0x0 C:\Users\brend\AppData\Local\Temp\ccheh5G2.ltrans25.ltrans.o
 .bss           0x0000000000000000        0x0 C:\Users\brend\AppData\Local\Temp\ccheh5G2.ltrans25.ltrans.o
 .data          0x0000000000000000        0x0 C:\Users\brend\AppData\Local\Temp\ccheh5G2.ltrans27.ltrans.o
 .data          0x0000000000000000        0x0 C:\Users\brend\AppData\Local\Temp\ccheh5G2.ltrans28.ltrans.o
 .data          0x0000000000000000        0x0 C:\Users\brend\AppData\Local\Temp\ccheh5G2.ltrans29.ltrans.o
 .bss           0x0000000000000000        0x0 C:\Users\brend\AppData\Local\Temp\ccheh5G2.ltrans29.ltrans.o
 .rodata        0x0000000000000000        0x1 C:\Users\brend\AppData\Local\Temp\ccheh5G2.ltrans29.ltrans.o
 .data          0x0000000000000000        0x0 C:\Users\brend\AppData\Local\Temp\ccheh5G2.ltrans30.ltrans.o
 .bss           0x0000000000000000        0x0 C:\Users\brend\AppData\Local\Temp\ccheh5G2.ltrans30.ltrans.o
 .data          0x0000000000000000        0x0 c:/nxp/bstudio_nxp/sdk/tools/ba-elf-ba2-r36379/bin/../lib/gcc/ba-elf/4.7.4/../../../../ba-elf/lib/mcpu_jn51xx_sizeopt\libc.a(lib_a-memcmp.o)
 .bss           0x0000000000000000        0x0 c:/nxp/bstudio_nxp/sdk/tools/ba-elf-ba2-r36379/bin/../lib/gcc/ba-elf/4.7.4/../../../../ba-elf/lib/mcpu_jn51xx_sizeopt\libc.a(lib_a-memcmp.o)
 .data          0x0000000000000000        0x0 c:/nxp/bstudio_nxp/sdk/tools/ba-elf-ba2-r36379/bin/../lib/gcc/ba-elf/4.7.4/../../../../ba-elf/lib/mcpu_jn51xx_sizeopt\libc.a(lib_a-memcpy.o)
 .bss           0x0000000000000000        0x0 c:/nxp/bstudio_nxp/sdk/tools/ba-elf-ba2-r36379/bin/../lib/gcc/ba-elf/4.7.4/../../../../ba-elf/lib/mcpu_jn51xx_sizeopt\libc.a(lib_a-memcpy.o)
 .data          0x0000000000000000        0x0 c:/nxp/bstudio_nxp/sdk/tools/ba-elf-ba2-r36379/bin/../lib/gcc/ba-elf/4.7.4/../../../../ba-elf/lib/mcpu_jn51xx_sizeopt\libc.a(lib_a-memset.o)
 .bss           0x0000000000000000        0x0 c:/nxp/bstudio_nxp/sdk/tools/ba-elf-ba2-r36379/bin/../lib/gcc/ba-elf/4.7.4/../../../../ba-elf/lib/mcpu_jn51xx_sizeopt\libc.a(lib_a-memset.o)
 .data          0x0000000000000000        0x0 c:/nxp/bstudio_nxp/sdk/tools/ba-elf-ba2-r36379/bin/../lib/gcc/ba-elf/4.7.4/../../../../ba-elf/lib/mcpu_jn51xx_sizeopt\libc.a(lib_a-strlen.o)
 .bss           0x0000000000000000        0x0 c:/nxp/bstudio_nxp/sdk/tools/ba-elf-ba2-r36379/bin/../lib/gcc/ba-elf/4.7.4/../../../../ba-elf/lib/mcpu_jn51xx_sizeopt\libc.a(lib_a-strlen.o)
 .data          0x0000000000000000        0x0 c:/nxp/bstudio_nxp/sdk/tools/ba-elf-ba2-r36379/bin/../lib/gcc/ba-elf/4.7.4/../../../../ba-elf/lib/mcpu_jn51xx_sizeopt\libc.a(lib_a-strncpy.o)
 .bss           0x0000000000000000        0x0 c:/nxp/bstudio_nxp/sdk/tools/ba-elf-ba2-r36379/bin/../lib/gcc/ba-elf/4.7.4/../../../../ba-elf/lib/mcpu_jn51xx_sizeopt\libc.a(lib_a-strncpy.o)
 .data          0x0000000000000000        0x0 c:/nxp/bstudio_nxp/sdk/tools/ba-elf-ba2-r36379/bin/../lib/gcc/ba-elf/4.7.4/mcpu_jn51xx_sizeopt\libgcc.a(__udivsi3.o)
 .bss           0x0000000000000000        0x0 c:/nxp/bstudio_nxp/sdk/tools/ba-elf-ba2-r36379/bin/../lib/gcc/ba-elf/4.7.4/mcpu_jn51xx_sizeopt\libgcc.a(__udivsi3.o)
 .data          0x0000000000000000        0x0 c:/nxp/bstudio_nxp/sdk/tools/ba-elf-ba2-r36379/bin/../lib/gcc/ba-elf/4.7.4/mcpu_jn51xx_sizeopt\libgcc.a(__divsi3.o)
 .bss           0x0000000000000000        0x0 c:/nxp/bstudio_nxp/sdk/tools/ba-elf-ba2-r36379/bin/../lib/gcc/ba-elf/4.7.4/mcpu_jn51xx_sizeopt\libgcc.a(__divsi3.o)
 .data          0x0000000000000000        0x0 c:/nxp/bstudio_nxp/sdk/tools/ba-elf-ba2-r36379/bin/../lib/gcc/ba-elf/4.7.4/mcpu_jn51xx_sizeopt\libgcc.a(__umodsi3.o)
 .bss           0x0000000000000000        0x0 c:/nxp/bstudio_nxp/sdk/tools/ba-elf-ba2-r36379/bin/../lib/gcc/ba-elf/4.7.4/mcpu_jn51xx_sizeopt\libgcc.a(__umodsi3.o)
 .data          0x0000000000000000        0x0 c:/nxp/bstudio_nxp/sdk/tools/ba-elf-ba2-r36379/bin/../lib/gcc/ba-elf/4.7.4/mcpu_jn51xx_sizeopt\libgcc.a(__modsi3.o)
 .bss           0x0000000000000000        0x0 c:/nxp/bstudio_nxp/sdk/tools/ba-elf-ba2-r36379/bin/../lib/gcc/ba-elf/4.7.4/mcpu_jn51xx_sizeopt\libgcc.a(__modsi3.o)
 .data          0x0000000000000000        0x0 c:/nxp/bstudio_nxp/sdk/tools/ba-elf-ba2-r36379/bin/../lib/gcc/ba-elf/4.7.4/mcpu_jn51xx_sizeopt\libgcc.a(_fixunsdfsi.o)
 .bss           0x0000000000000000        0x0 c:/nxp/bstudio_nxp/sdk/tools/ba-elf-ba2-r36379/bin/../lib/gcc/ba-elf/4.7.4/mcpu_jn51xx_sizeopt\libgcc.a(_fixunsdfsi.o)
 .data          0x0000000000000000        0x0 c:/nxp/bstudio_nxp/sdk/tools/ba-elf-ba2-r36379/bin/../lib/gcc/ba-elf/4.7.4/mcpu_jn51xx_sizeopt\libgcc.a(_divdi3.o)
 .bss           0x0000000000000000        0x0 c:/nxp/bstudio_nxp/sdk/tools/ba-elf-ba2-r36379/bin/../lib/gcc/ba-elf/4.7.4/mcpu_jn51xx_sizeopt\libgcc.a(_divdi3.o)
 .eh_frame      0x0000000000000000       0x38 c:/nxp/bstudio_nxp/sdk/tools/ba-elf-ba2-r36379/bin/../lib/gcc/ba-elf/4.7.4/mcpu_jn51xx_sizeopt\libgcc.a(_divdi3.o)
 .data          0x0000000000000000        0x0 c:/nxp/bstudio_nxp/sdk/tools/ba-elf-ba2-r36379/bin/../lib/gcc/ba-elf/4.7.4/mcpu_jn51xx_sizeopt\libgcc.a(_udivdi3.o)
 .bss           0x0000000000000000        0x0 c:/nxp/bstudio_nxp/sdk/tools/ba-elf-ba2-r36379/bin/../lib/gcc/ba-elf/4.7.4/mcpu_jn51xx_sizeopt\libgcc.a(_udivdi3.o)
 .eh_frame      0x0000000000000000       0x38 c:/nxp/bstudio_nxp/sdk/tools/ba-elf-ba2-r36379/bin/../lib/gcc/ba-elf/4.7.4/mcpu_jn51xx_sizeopt\libgcc.a(_udivdi3.o)
 .data          0x0000000000000000        0x0 c:/nxp/bstudio_nxp/sdk/tools/ba-elf-ba2-r36379/bin/../lib/gcc/ba-elf/4.7.4/mcpu_jn51xx_sizeopt\libgcc.a(addsf3.o)
 .bss           0x0000000000000000        0x0 c:/nxp/bstudio_nxp/sdk/tools/ba-elf-ba2-r36379/bin/../lib/gcc/ba-elf/4.7.4/mcpu_jn51xx_sizeopt\libgcc.a(addsf3.o)
 .data          0x0000000000000000        0x0 c:/nxp/bstudio_nxp/sdk/tools/ba-elf-ba2-r36379/bin/../lib/gcc/ba-elf/4.7.4/mcpu_jn51xx_sizeopt\libgcc.a(divsf3.o)
 .bss           0x0000000000000000        0x0 c:/nxp/bstudio_nxp/sdk/tools/ba-elf-ba2-r36379/bin/../lib/gcc/ba-elf/4.7.4/mcpu_jn51xx_sizeopt\libgcc.a(divsf3.o)
 .data          0x0000000000000000        0x0 c:/nxp/bstudio_nxp/sdk/tools/ba-elf-ba2-r36379/bin/../lib/gcc/ba-elf/4.7.4/mcpu_jn51xx_sizeopt\libgcc.a(gesf2.o)
 .bss           0x0000000000000000        0x0 c:/nxp/bstudio_nxp/sdk/tools/ba-elf-ba2-r36379/bin/../lib/gcc/ba-elf/4.7.4/mcpu_jn51xx_sizeopt\libgcc.a(gesf2.o)
 .data          0x0000000000000000        0x0 c:/nxp/bstudio_nxp/sdk/tools/ba-elf-ba2-r36379/bin/../lib/gcc/ba-elf/4.7.4/mcpu_jn51xx_sizeopt\libgcc.a(lesf2.o)
 .bss           0x0000000000000000        0x0 c:/nxp/bstudio_nxp/sdk/tools/ba-elf-ba2-r36379/bin/../lib/gcc/ba-elf/4.7.4/mcpu_jn51xx_sizeopt\libgcc.a(lesf2.o)
 .data          0x0000000000000000        0x0 c:/nxp/bstudio_nxp/sdk/tools/ba-elf-ba2-r36379/bin/../lib/gcc/ba-elf/4.7.4/mcpu_jn51xx_sizeopt\libgcc.a(mulsf3.o)
 .bss           0x0000000000000000        0x0 c:/nxp/bstudio_nxp/sdk/tools/ba-elf-ba2-r36379/bin/../lib/gcc/ba-elf/4.7.4/mcpu_jn51xx_sizeopt\libgcc.a(mulsf3.o)
 .data          0x0000000000000000        0x0 c:/nxp/bstudio_nxp/sdk/tools/ba-elf-ba2-r36379/bin/../lib/gcc/ba-elf/4.7.4/mcpu_jn51xx_sizeopt\libgcc.a(subsf3.o)
 .bss           0x0000000000000000        0x0 c:/nxp/bstudio_nxp/sdk/tools/ba-elf-ba2-r36379/bin/../lib/gcc/ba-elf/4.7.4/mcpu_jn51xx_sizeopt\libgcc.a(subsf3.o)
 .data          0x0000000000000000        0x0 c:/nxp/bstudio_nxp/sdk/tools/ba-elf-ba2-r36379/bin/../lib/gcc/ba-elf/4.7.4/mcpu_jn51xx_sizeopt\libgcc.a(floatunsisf.o)
 .bss           0x0000000000000000        0x0 c:/nxp/bstudio_nxp/sdk/tools/ba-elf-ba2-r36379/bin/../lib/gcc/ba-elf/4.7.4/mcpu_jn51xx_sizeopt\libgcc.a(floatunsisf.o)
 .data          0x0000000000000000        0x0 c:/nxp/bstudio_nxp/sdk/tools/ba-elf-ba2-r36379/bin/../lib/gcc/ba-elf/4.7.4/mcpu_jn51xx_sizeopt\libgcc.a(divdf3.o)
 .bss           0x0000000000000000        0x0 c:/nxp/bstudio_nxp/sdk/tools/ba-elf-ba2-r36379/bin/../lib/gcc/ba-elf/4.7.4/mcpu_jn51xx_sizeopt\libgcc.a(divdf3.o)
 .data          0x0000000000000000        0x0 c:/nxp/bstudio_nxp/sdk/tools/ba-elf-ba2-r36379/bin/../lib/gcc/ba-elf/4.7.4/mcpu_jn51xx_sizeopt\libgcc.a(gedf2.o)
 .bss           0x0000000000000000        0x0 c:/nxp/bstudio_nxp/sdk/tools/ba-elf-ba2-r36379/bin/../lib/gcc/ba-elf/4.7.4/mcpu_jn51xx_sizeopt\libgcc.a(gedf2.o)
 .data          0x0000000000000000        0x0 c:/nxp/bstudio_nxp/sdk/tools/ba-elf-ba2-r36379/bin/../lib/gcc/ba-elf/4.7.4/mcpu_jn51xx_sizeopt\libgcc.a(muldf3.o)
 .bss           0x0000000000000000        0x0 c:/nxp/bstudio_nxp/sdk/tools/ba-elf-ba2-r36379/bin/../lib/gcc/ba-elf/4.7.4/mcpu_jn51xx_sizeopt\libgcc.a(muldf3.o)
 .data          0x0000000000000000        0x0 c:/nxp/bstudio_nxp/sdk/tools/ba-elf-ba2-r36379/bin/../lib/gcc/ba-elf/4.7.4/mcpu_jn51xx_sizeopt\libgcc.a(subdf3.o)
 .bss           0x0000000000000000        0x0 c:/nxp/bstudio_nxp/sdk/tools/ba-elf-ba2-r36379/bin/../lib/gcc/ba-elf/4.7.4/mcpu_jn51xx_sizeopt\libgcc.a(subdf3.o)
 .data          0x0000000000000000        0x0 c:/nxp/bstudio_nxp/sdk/tools/ba-elf-ba2-r36379/bin/../lib/gcc/ba-elf/4.7.4/mcpu_jn51xx_sizeopt\libgcc.a(fixdfsi.o)
 .bss           0x0000000000000000        0x0 c:/nxp/bstudio_nxp/sdk/tools/ba-elf-ba2-r36379/bin/../lib/gcc/ba-elf/4.7.4/mcpu_jn51xx_sizeopt\libgcc.a(fixdfsi.o)
 .data          0x0000000000000000        0x0 c:/nxp/bstudio_nxp/sdk/tools/ba-elf-ba2-r36379/bin/../lib/gcc/ba-elf/4.7.4/mcpu_jn51xx_sizeopt\libgcc.a(extendsfdf2.o)
 .bss           0x0000000000000000        0x0 c:/nxp/bstudio_nxp/sdk/tools/ba-elf-ba2-r36379/bin/../lib/gcc/ba-elf/4.7.4/mcpu_jn51xx_sizeopt\libgcc.a(extendsfdf2.o)
 .data          0x0000000000000000        0x0 c:/nxp/bstudio_nxp/sdk/tools/ba-elf-ba2-r36379/bin/../lib/gcc/ba-elf/4.7.4/mcpu_jn51xx_sizeopt\libgcc.a(truncdfsf2.o)
 .bss           0x0000000000000000        0x0 c:/nxp/bstudio_nxp/sdk/tools/ba-elf-ba2-r36379/bin/../lib/gcc/ba-elf/4.7.4/mcpu_jn51xx_sizeopt\libgcc.a(truncdfsf2.o)
 .data          0x0000000000000000        0x0 c:/NXP/bstudio_nxp/workspace/ZigBee-LightLink-Test-1/Light_ColorTemperatureLight/Build/os_irq.o
 .bss           0x0000000000000000        0x0 c:/NXP/bstudio_nxp/workspace/ZigBee-LightLink-Test-1/Light_ColorTemperatureLight/Build/os_irq.o
 .data          0x0000000000000000        0x0 c:/NXP/bstudio_nxp/workspace/ZigBee-LightLink-Test-1/Light_ColorTemperatureLight/Build/os_irq_alignment.o
 .bss           0x0000000000000000        0x0 c:/NXP/bstudio_nxp/workspace/ZigBee-LightLink-Test-1/Light_ColorTemperatureLight/Build/os_irq_alignment.o
 .data          0x0000000000000000        0x0 c:/NXP/bstudio_nxp/workspace/ZigBee-LightLink-Test-1/Light_ColorTemperatureLight/Build/os_irq_buserror.o
 .bss           0x0000000000000000        0x0 c:/NXP/bstudio_nxp/workspace/ZigBee-LightLink-Test-1/Light_ColorTemperatureLight/Build/os_irq_buserror.o
 .data          0x0000000000000000        0x0 c:/NXP/bstudio_nxp/workspace/ZigBee-LightLink-Test-1/Light_ColorTemperatureLight/Build/os_irq_illegalinstruction.o
 .bss           0x0000000000000000        0x0 c:/NXP/bstudio_nxp/workspace/ZigBee-LightLink-Test-1/Light_ColorTemperatureLight/Build/os_irq_illegalinstruction.o
 .data          0x0000000000000000        0x0 c:/NXP/bstudio_nxp/workspace/ZigBee-LightLink-Test-1/Light_ColorTemperatureLight/Build/os_irq_stackoverflowexception.o
 .bss           0x0000000000000000        0x0 c:/NXP/bstudio_nxp/workspace/ZigBee-LightLink-Test-1/Light_ColorTemperatureLight/Build/os_irq_stackoverflowexception.o
 .data          0x0000000000000000        0x0 c:/NXP/bstudio_nxp/workspace/ZigBee-LightLink-Test-1/Light_ColorTemperatureLight/Build/os_irq_unimplementedmodule.o
 .bss           0x0000000000000000        0x0 c:/NXP/bstudio_nxp/workspace/ZigBee-LightLink-Test-1/Light_ColorTemperatureLight/Build/os_irq_unimplementedmodule.o
 .text          0x0000000000000000        0x0 c:/NXP/bstudio_nxp/workspace/ZigBee-LightLink-Test-1/Light_ColorTemperatureLight/Build/pdum_gen.o (symbol from plugin)
 .text          0x0000000000000000        0x0 c:/NXP/bstudio_nxp/workspace/ZigBee-LightLink-Test-1/Light_ColorTemperatureLight/Build/pdum_apdu.o
 .data          0x0000000000000000        0x0 c:/NXP/bstudio_nxp/workspace/ZigBee-LightLink-Test-1/Light_ColorTemperatureLight/Build/pdum_apdu.o
 .bss           0x0000000000000000        0x0 c:/NXP/bstudio_nxp/workspace/ZigBee-LightLink-Test-1/Light_ColorTemperatureLight/Build/pdum_apdu.o
 .text          0x0000000000000000        0x0 c:/NXP/bstudio_nxp/workspace/ZigBee-LightLink-Test-1/Light_ColorTemperatureLight/Build/zps_gen.o (symbol from plugin)
 .text          0x0000000000000000        0x0 c:/NXP/bstudio_nxp/workspace/ZigBee-LightLink-Test-1/Light_ColorTemperatureLight/Build/app_timer_driver.o (symbol from plugin)
 .text          0x0000000000000000        0x0 c:/NXP/bstudio_nxp/workspace/ZigBee-LightLink-Test-1/Light_ColorTemperatureLight/Build/app_start_light.o (symbol from plugin)
 .text          0x0000000000000000        0x0 c:/NXP/bstudio_nxp/workspace/ZigBee-LightLink-Test-1/Light_ColorTemperatureLight/Build/app_scenes.o (symbol from plugin)
 .text          0x0000000000000000        0x0 c:/NXP/bstudio_nxp/workspace/ZigBee-LightLink-Test-1/Light_ColorTemperatureLight/Build/app_power_on_counter.o (symbol from plugin)
 .text          0x0000000000000000        0x0 c:/NXP/bstudio_nxp/workspace/ZigBee-LightLink-Test-1/Light_ColorTemperatureLight/Build/zpr_light_node.o (symbol from plugin)
 .text          0x0000000000000000        0x0 c:/NXP/bstudio_nxp/workspace/ZigBee-LightLink-Test-1/Light_ColorTemperatureLight/Build/ecb_decrypt.o (symbol from plugin)
 .text          0x0000000000000000        0x0 c:/NXP/bstudio_nxp/workspace/ZigBee-LightLink-Test-1/Light_ColorTemperatureLight/Build/app_zcl_light_task.o (symbol from plugin)
 .text          0x0000000000000000        0x0 c:/NXP/bstudio_nxp/workspace/ZigBee-LightLink-Test-1/Light_ColorTemperatureLight/Build/app_light_commission_task.o (symbol from plugin)
 .text          0x0000000000000000        0x0 c:/NXP/bstudio_nxp/workspace/ZigBee-LightLink-Test-1/Light_ColorTemperatureLight/Build/app_manage_temperature.o (symbol from plugin)
 .text          0x0000000000000000        0x0 c:/NXP/bstudio_nxp/workspace/ZigBee-LightLink-Test-1/Light_ColorTemperatureLight/Build/app_light_interpolation.o (symbol from plugin)
 .text          0x0000000000000000        0x0 c:/NXP/bstudio_nxp/workspace/ZigBee-LightLink-Test-1/Light_ColorTemperatureLight/Build/appZpsBeaconHandler.o (symbol from plugin)
 .text          0x0000000000000000        0x0 c:/NXP/bstudio_nxp/workspace/ZigBee-LightLink-Test-1/Light_ColorTemperatureLight/Build/App_Light_ColorTemperatureLight.o (symbol from plugin)
 .text          0x0000000000000000        0x0 c:/NXP/bstudio_nxp/workspace/ZigBee-LightLink-Test-1/Light_ColorTemperatureLight/Build/DriverBulb_DR1221_Dimic.o (symbol from plugin)
 .text          0x0000000000000000        0x0 c:/NXP/bstudio_nxp/workspace/ZigBee-LightLink-Test-1/Light_ColorTemperatureLight/Build/DriverBulb_Shim.o (symbol from plugin)
 .text          0x0000000000000000        0x0 c:/NXP/bstudio_nxp/workspace/ZigBee-LightLink-Test-1/Light_ColorTemperatureLight/Build/Alarms.o (symbol from plugin)
 .text          0x0000000000000000        0x0 c:/NXP/bstudio_nxp/workspace/ZigBee-LightLink-Test-1/Light_ColorTemperatureLight/Build/AlarmsClientCommands.o (symbol from plugin)
 .text          0x0000000000000000        0x0 c:/NXP/bstudio_nxp/workspace/ZigBee-LightLink-Test-1/Light_ColorTemperatureLight/Build/AlarmsCommandHandler.o (symbol from plugin)
 .text          0x0000000000000000        0x0 c:/NXP/bstudio_nxp/workspace/ZigBee-LightLink-Test-1/Light_ColorTemperatureLight/Build/AlarmsServerCommands.o (symbol from plugin)
 .text          0x0000000000000000        0x0 c:/NXP/bstudio_nxp/workspace/ZigBee-LightLink-Test-1/Light_ColorTemperatureLight/Build/AlarmsTableManager.o (symbol from plugin)
 .text          0x0000000000000000        0x0 c:/NXP/bstudio_nxp/workspace/ZigBee-LightLink-Test-1/Light_ColorTemperatureLight/Build/AnalogInputBasic.o (symbol from plugin)
 .text          0x0000000000000000        0x0 c:/NXP/bstudio_nxp/workspace/ZigBee-LightLink-Test-1/Light_ColorTemperatureLight/Build/AnalogOutputBasic.o (symbol from plugin)
 .text          0x0000000000000000        0x0 c:/NXP/bstudio_nxp/workspace/ZigBee-LightLink-Test-1/Light_ColorTemperatureLight/Build/Basic.o (symbol from plugin)
 .text          0x0000000000000000        0x0 c:/NXP/bstudio_nxp/workspace/ZigBee-LightLink-Test-1/Light_ColorTemperatureLight/Build/BasicClientCommands.o (symbol from plugin)
 .text          0x0000000000000000        0x0 c:/NXP/bstudio_nxp/workspace/ZigBee-LightLink-Test-1/Light_ColorTemperatureLight/Build/BasicCommandHandler.o (symbol from plugin)
 .text          0x0000000000000000        0x0 c:/NXP/bstudio_nxp/workspace/ZigBee-LightLink-Test-1/Light_ColorTemperatureLight/Build/BinaryInputBasic.o (symbol from plugin)
 .text          0x0000000000000000        0x0 c:/NXP/bstudio_nxp/workspace/ZigBee-LightLink-Test-1/Light_ColorTemperatureLight/Build/BinaryOutputBasic.o (symbol from plugin)
 .text          0x0000000000000000        0x0 c:/NXP/bstudio_nxp/workspace/ZigBee-LightLink-Test-1/Light_ColorTemperatureLight/Build/Commissioning.o (symbol from plugin)
 .text          0x0000000000000000        0x0 c:/NXP/bstudio_nxp/workspace/ZigBee-LightLink-Test-1/Light_ColorTemperatureLight/Build/DeviceTemperatureConfiguration.o (symbol from plugin)
 .text          0x0000000000000000        0x0 c:/NXP/bstudio_nxp/workspace/ZigBee-LightLink-Test-1/Light_ColorTemperatureLight/Build/Diagnostics.o (symbol from plugin)
 .text          0x0000000000000000        0x0 c:/NXP/bstudio_nxp/workspace/ZigBee-LightLink-Test-1/Light_ColorTemperatureLight/Build/DoorLock.o (symbol from plugin)
 .text          0x0000000000000000        0x0 c:/NXP/bstudio_nxp/workspace/ZigBee-LightLink-Test-1/Light_ColorTemperatureLight/Build/DoorLockCommandHandler.o (symbol from plugin)
 .text          0x0000000000000000        0x0 c:/NXP/bstudio_nxp/workspace/ZigBee-LightLink-Test-1/Light_ColorTemperatureLight/Build/DoorLockCommands.o (symbol from plugin)
 .text          0x0000000000000000        0x0 c:/NXP/bstudio_nxp/workspace/ZigBee-LightLink-Test-1/Light_ColorTemperatureLight/Build/ElectricalMeasurement.o (symbol from plugin)
 .text          0x0000000000000000        0x0 c:/NXP/bstudio_nxp/workspace/ZigBee-LightLink-Test-1/Light_ColorTemperatureLight/Build/Groups.o (symbol from plugin)
 .text          0x0000000000000000        0x0 c:/NXP/bstudio_nxp/workspace/ZigBee-LightLink-Test-1/Light_ColorTemperatureLight/Build/GroupsClientCommands.o (symbol from plugin)
 .text          0x0000000000000000        0x0 c:/NXP/bstudio_nxp/workspace/ZigBee-LightLink-Test-1/Light_ColorTemperatureLight/Build/GroupsCommandHandler.o (symbol from plugin)
 .text          0x0000000000000000        0x0 c:/NXP/bstudio_nxp/workspace/ZigBee-LightLink-Test-1/Light_ColorTemperatureLight/Build/GroupsServerCommands.o (symbol from plugin)
 .text          0x0000000000000000        0x0 c:/NXP/bstudio_nxp/workspace/ZigBee-LightLink-Test-1/Light_ColorTemperatureLight/Build/GroupsTableManager.o (symbol from plugin)
 .text          0x0000000000000000        0x0 c:/NXP/bstudio_nxp/workspace/ZigBee-LightLink-Test-1/Light_ColorTemperatureLight/Build/Identify.o (symbol from plugin)
 .text          0x0000000000000000        0x0 c:/NXP/bstudio_nxp/workspace/ZigBee-LightLink-Test-1/Light_ColorTemperatureLight/Build/IdentifyClientCommands.o (symbol from plugin)
 .text          0x0000000000000000        0x0 c:/NXP/bstudio_nxp/workspace/ZigBee-LightLink-Test-1/Light_ColorTemperatureLight/Build/IdentifyCommandHandler.o (symbol from plugin)
 .text          0x0000000000000000        0x0 c:/NXP/bstudio_nxp/workspace/ZigBee-LightLink-Test-1/Light_ColorTemperatureLight/Build/IdentifyServerCommands.o (symbol from plugin)
 .text          0x0000000000000000        0x0 c:/NXP/bstudio_nxp/workspace/ZigBee-LightLink-Test-1/Light_ColorTemperatureLight/Build/LevelControl.o (symbol from plugin)
 .text          0x0000000000000000        0x0 c:/NXP/bstudio_nxp/workspace/ZigBee-LightLink-Test-1/Light_ColorTemperatureLight/Build/LevelControlClientCommands.o (symbol from plugin)
 .text          0x0000000000000000        0x0 c:/NXP/bstudio_nxp/workspace/ZigBee-LightLink-Test-1/Light_ColorTemperatureLight/Build/LevelControlCommandHandler.o (symbol from plugin)
 .text          0x0000000000000000        0x0 c:/NXP/bstudio_nxp/workspace/ZigBee-LightLink-Test-1/Light_ColorTemperatureLight/Build/MultistateInputBasic.o (symbol from plugin)
 .text          0x0000000000000000        0x0 c:/NXP/bstudio_nxp/workspace/ZigBee-LightLink-Test-1/Light_ColorTemperatureLight/Build/MultistateOutputBasic.o (symbol from plugin)
 .text          0x0000000000000000        0x0 c:/NXP/bstudio_nxp/workspace/ZigBee-LightLink-Test-1/Light_ColorTemperatureLight/Build/OOSC.o (symbol from plugin)
 .text          0x0000000000000000        0x0 c:/NXP/bstudio_nxp/workspace/ZigBee-LightLink-Test-1/Light_ColorTemperatureLight/Build/OnOff.o (symbol from plugin)
 .text          0x0000000000000000        0x0 c:/NXP/bstudio_nxp/workspace/ZigBee-LightLink-Test-1/Light_ColorTemperatureLight/Build/OnOffCommandHandler.o (symbol from plugin)
 .text          0x0000000000000000        0x0 c:/NXP/bstudio_nxp/workspace/ZigBee-LightLink-Test-1/Light_ColorTemperatureLight/Build/OnOffCommands.o (symbol from plugin)
 .text          0x0000000000000000        0x0 c:/NXP/bstudio_nxp/workspace/ZigBee-LightLink-Test-1/Light_ColorTemperatureLight/Build/PollControl.o (symbol from plugin)
 .text          0x0000000000000000        0x0 c:/NXP/bstudio_nxp/workspace/ZigBee-LightLink-Test-1/Light_ColorTemperatureLight/Build/PollControlClientCommands.o (symbol from plugin)
 .text          0x0000000000000000        0x0 c:/NXP/bstudio_nxp/workspace/ZigBee-LightLink-Test-1/Light_ColorTemperatureLight/Build/PollControlCommandHandler.o (symbol from plugin)
 .text          0x0000000000000000        0x0 c:/NXP/bstudio_nxp/workspace/ZigBee-LightLink-Test-1/Light_ColorTemperatureLight/Build/PollControlServerCommands.o (symbol from plugin)
 .text          0x0000000000000000        0x0 c:/NXP/bstudio_nxp/workspace/ZigBee-LightLink-Test-1/Light_ColorTemperatureLight/Build/PowerConfiguration.o (symbol from plugin)
 .text          0x0000000000000000        0x0 c:/NXP/bstudio_nxp/workspace/ZigBee-LightLink-Test-1/Light_ColorTemperatureLight/Build/Scenes.o (symbol from plugin)
 .text          0x0000000000000000        0x0 c:/NXP/bstudio_nxp/workspace/ZigBee-LightLink-Test-1/Light_ColorTemperatureLight/Build/ScenesClientCommands.o (symbol from plugin)
 .text          0x0000000000000000        0x0 c:/NXP/bstudio_nxp/workspace/ZigBee-LightLink-Test-1/Light_ColorTemperatureLight/Build/ScenesClusterManagement.o (symbol from plugin)
 .text          0x0000000000000000        0x0 c:/NXP/bstudio_nxp/workspace/ZigBee-LightLink-Test-1/Light_ColorTemperatureLight/Build/ScenesCommandHandler.o (symbol from plugin)
 .text          0x0000000000000000        0x0 c:/NXP/bstudio_nxp/workspace/ZigBee-LightLink-Test-1/Light_ColorTemperatureLight/Build/ScenesServerCommands.o (symbol from plugin)
 .text          0x0000000000000000        0x0 c:/NXP/bstudio_nxp/workspace/ZigBee-LightLink-Test-1/Light_ColorTemperatureLight/Build/ScenesTableManager.o (symbol from plugin)
 .text          0x0000000000000000        0x0 c:/NXP/bstudio_nxp/workspace/ZigBee-LightLink-Test-1/Light_ColorTemperatureLight/Build/TC.o (symbol from plugin)
 .text          0x0000000000000000        0x0 c:/NXP/bstudio_nxp/workspace/ZigBee-LightLink-Test-1/Light_ColorTemperatureLight/Build/Time.o (symbol from plugin)
 .text          0x0000000000000000        0x0 c:/NXP/bstudio_nxp/workspace/ZigBee-LightLink-Test-1/Light_ColorTemperatureLight/Build/zll_CommissionCmdHandler.o (symbol from plugin)
 .text          0x0000000000000000        0x0 c:/NXP/bstudio_nxp/workspace/ZigBee-LightLink-Test-1/Light_ColorTemperatureLight/Build/zll_UtilityCmdHandler.o (symbol from plugin)
 .text          0x0000000000000000        0x0 c:/NXP/bstudio_nxp/workspace/ZigBee-LightLink-Test-1/Light_ColorTemperatureLight/Build/zll_commission.o (symbol from plugin)
 .text          0x0000000000000000        0x0 c:/NXP/bstudio_nxp/workspace/ZigBee-LightLink-Test-1/Light_ColorTemperatureLight/Build/zll_utility.o (symbol from plugin)
 .text          0x0000000000000000        0x0 c:/NXP/bstudio_nxp/workspace/ZigBee-LightLink-Test-1/Light_ColorTemperatureLight/Build/colour_light.o (symbol from plugin)
 .text          0x0000000000000000        0x0 c:/NXP/bstudio_nxp/workspace/ZigBee-LightLink-Test-1/Light_ColorTemperatureLight/Build/colour_remote.o (symbol from plugin)
 .text          0x0000000000000000        0x0 c:/NXP/bstudio_nxp/workspace/ZigBee-LightLink-Test-1/Light_ColorTemperatureLight/Build/colour_scene_remote.o (symbol from plugin)
 .text          0x0000000000000000        0x0 c:/NXP/bstudio_nxp/workspace/ZigBee-LightLink-Test-1/Light_ColorTemperatureLight/Build/colour_temperature_light.o (symbol from plugin)
 .text          0x0000000000000000        0x0 c:/NXP/bstudio_nxp/workspace/ZigBee-LightLink-Test-1/Light_ColorTemperatureLight/Build/commission_endpoint.o (symbol from plugin)
 .text          0x0000000000000000        0x0 c:/NXP/bstudio_nxp/workspace/ZigBee-LightLink-Test-1/Light_ColorTemperatureLight/Build/control_bridge.o (symbol from plugin)
 .text          0x0000000000000000        0x0 c:/NXP/bstudio_nxp/workspace/ZigBee-LightLink-Test-1/Light_ColorTemperatureLight/Build/dimmable_light.o (symbol from plugin)
 .text          0x0000000000000000        0x0 c:/NXP/bstudio_nxp/workspace/ZigBee-LightLink-Test-1/Light_ColorTemperatureLight/Build/dimmable_plug.o (symbol from plugin)
 .text          0x0000000000000000        0x0 c:/NXP/bstudio_nxp/workspace/ZigBee-LightLink-Test-1/Light_ColorTemperatureLight/Build/extended_colour_light.o (symbol from plugin)
 .text          0x0000000000000000        0x0 c:/NXP/bstudio_nxp/workspace/ZigBee-LightLink-Test-1/Light_ColorTemperatureLight/Build/non_colour_remote.o (symbol from plugin)
 .text          0x0000000000000000        0x0 c:/NXP/bstudio_nxp/workspace/ZigBee-LightLink-Test-1/Light_ColorTemperatureLight/Build/non_colour_scene_remote.o (symbol from plugin)
 .text          0x0000000000000000        0x0 c:/NXP/bstudio_nxp/workspace/ZigBee-LightLink-Test-1/Light_ColorTemperatureLight/Build/on_off_light.o (symbol from plugin)
 .text          0x0000000000000000        0x0 c:/NXP/bstudio_nxp/workspace/ZigBee-LightLink-Test-1/Light_ColorTemperatureLight/Build/on_off_plug.o (symbol from plugin)
 .text          0x0000000000000000        0x0 c:/NXP/bstudio_nxp/workspace/ZigBee-LightLink-Test-1/Light_ColorTemperatureLight/Build/on_off_sensor.o (symbol from plugin)
 .text          0x0000000000000000        0x0 c:/NXP/bstudio_nxp/workspace/ZigBee-LightLink-Test-1/Light_ColorTemperatureLight/Build/zll.o (symbol from plugin)
 .text          0x0000000000000000        0x0 c:/NXP/bstudio_nxp/workspace/ZigBee-LightLink-Test-1/Light_ColorTemperatureLight/Build/BallastConfiguration.o (symbol from plugin)
 .text          0x0000000000000000        0x0 c:/NXP/bstudio_nxp/workspace/ZigBee-LightLink-Test-1/Light_ColorTemperatureLight/Build/ColourControl.o (symbol from plugin)
 .text          0x0000000000000000        0x0 c:/NXP/bstudio_nxp/workspace/ZigBee-LightLink-Test-1/Light_ColorTemperatureLight/Build/ColourControlClientCommands.o (symbol from plugin)
 .text          0x0000000000000000        0x0 c:/NXP/bstudio_nxp/workspace/ZigBee-LightLink-Test-1/Light_ColorTemperatureLight/Build/ColourControlCommandHandler.o (symbol from plugin)
 .text          0x0000000000000000        0x0 c:/NXP/bstudio_nxp/workspace/ZigBee-LightLink-Test-1/Light_ColorTemperatureLight/Build/ColourControlConversions.o (symbol from plugin)
 .text          0x0000000000000000        0x0 c:/NXP/bstudio_nxp/workspace/ZigBee-LightLink-Test-1/Light_ColorTemperatureLight/Build/dlist.o (symbol from plugin)
 .text          0x0000000000000000        0x0 c:/NXP/bstudio_nxp/workspace/ZigBee-LightLink-Test-1/Light_ColorTemperatureLight/Build/zcl.o (symbol from plugin)
 .text          0x0000000000000000        0x0 c:/NXP/bstudio_nxp/workspace/ZigBee-LightLink-Test-1/Light_ColorTemperatureLight/Build/zcl_CustomCommandReceive.o (symbol from plugin)
 .text          0x0000000000000000        0x0 c:/NXP/bstudio_nxp/workspace/ZigBee-LightLink-Test-1/Light_ColorTemperatureLight/Build/zcl_CustomCommandSend.o (symbol from plugin)
 .text          0x0000000000000000        0x0 c:/NXP/bstudio_nxp/workspace/ZigBee-LightLink-Test-1/Light_ColorTemperatureLight/Build/zcl_PDUbufferReadWrite.o (symbol from plugin)
 .text          0x0000000000000000        0x0 c:/NXP/bstudio_nxp/workspace/ZigBee-LightLink-Test-1/Light_ColorTemperatureLight/Build/zcl_PDUbufferReadWriteString.o (symbol from plugin)
 .text          0x0000000000000000        0x0 c:/NXP/bstudio_nxp/workspace/ZigBee-LightLink-Test-1/Light_ColorTemperatureLight/Build/zcl_WriteAttributesRequestHandle.o (symbol from plugin)
 .text          0x0000000000000000        0x0 c:/NXP/bstudio_nxp/workspace/ZigBee-LightLink-Test-1/Light_ColorTemperatureLight/Build/zcl_WriteAttributesRequestSend.o (symbol from plugin)
 .text          0x0000000000000000        0x0 c:/NXP/bstudio_nxp/workspace/ZigBee-LightLink-Test-1/Light_ColorTemperatureLight/Build/zcl_WriteAttributesResponseHandle.o (symbol from plugin)
 .text          0x0000000000000000        0x0 c:/NXP/bstudio_nxp/workspace/ZigBee-LightLink-Test-1/Light_ColorTemperatureLight/Build/zcl_attribute.o (symbol from plugin)
 .text          0x0000000000000000        0x0 c:/NXP/bstudio_nxp/workspace/ZigBee-LightLink-Test-1/Light_ColorTemperatureLight/Build/zcl_buffer.o (symbol from plugin)
 .text          0x0000000000000000        0x0 c:/NXP/bstudio_nxp/workspace/ZigBee-LightLink-Test-1/Light_ColorTemperatureLight/Build/zcl_clusterCommand.o (symbol from plugin)
 .text          0x0000000000000000        0x0 c:/NXP/bstudio_nxp/workspace/ZigBee-LightLink-Test-1/Light_ColorTemperatureLight/Build/zcl_command.o (symbol from plugin)
 .text          0x0000000000000000        0x0 c:/NXP/bstudio_nxp/workspace/ZigBee-LightLink-Test-1/Light_ColorTemperatureLight/Build/zcl_configureReportingCommandHandle.o (symbol from plugin)
 .text          0x0000000000000000        0x0 c:/NXP/bstudio_nxp/workspace/ZigBee-LightLink-Test-1/Light_ColorTemperatureLight/Build/zcl_configureReportingCommandSend.o (symbol from plugin)
 .text          0x0000000000000000        0x0 c:/NXP/bstudio_nxp/workspace/ZigBee-LightLink-Test-1/Light_ColorTemperatureLight/Build/zcl_configureReportingResponseHandle.o (symbol from plugin)
 .text          0x0000000000000000        0x0 c:/NXP/bstudio_nxp/workspace/ZigBee-LightLink-Test-1/Light_ColorTemperatureLight/Build/zcl_defaultResponse.o (symbol from plugin)
 .text          0x0000000000000000        0x0 c:/NXP/bstudio_nxp/workspace/ZigBee-LightLink-Test-1/Light_ColorTemperatureLight/Build/zcl_discoverAttributesExtendedRequestHandle.o (symbol from plugin)
 .text          0x0000000000000000        0x0 c:/NXP/bstudio_nxp/workspace/ZigBee-LightLink-Test-1/Light_ColorTemperatureLight/Build/zcl_discoverAttributesExtendedRequestSend.o (symbol from plugin)
 .text          0x0000000000000000        0x0 c:/NXP/bstudio_nxp/workspace/ZigBee-LightLink-Test-1/Light_ColorTemperatureLight/Build/zcl_discoverAttributesExtendedResponseHandle.o (symbol from plugin)
 .text          0x0000000000000000        0x0 c:/NXP/bstudio_nxp/workspace/ZigBee-LightLink-Test-1/Light_ColorTemperatureLight/Build/zcl_discoverAttributesRequestHandle.o (symbol from plugin)
 .text          0x0000000000000000        0x0 c:/NXP/bstudio_nxp/workspace/ZigBee-LightLink-Test-1/Light_ColorTemperatureLight/Build/zcl_discoverAttributesRequestSend.o (symbol from plugin)
 .text          0x0000000000000000        0x0 c:/NXP/bstudio_nxp/workspace/ZigBee-LightLink-Test-1/Light_ColorTemperatureLight/Build/zcl_discoverAttributesResponseHandle.o (symbol from plugin)
 .text          0x0000000000000000        0x0 c:/NXP/bstudio_nxp/workspace/ZigBee-LightLink-Test-1/Light_ColorTemperatureLight/Build/zcl_discoverCommandsRequestHandle.o (symbol from plugin)
 .text          0x0000000000000000        0x0 c:/NXP/bstudio_nxp/workspace/ZigBee-LightLink-Test-1/Light_ColorTemperatureLight/Build/zcl_discoverCommandsRequestSend.o (symbol from plugin)
 .text          0x0000000000000000        0x0 c:/NXP/bstudio_nxp/workspace/ZigBee-LightLink-Test-1/Light_ColorTemperatureLight/Build/zcl_discoverCommandsResponseHandle.o (symbol from plugin)
 .text          0x0000000000000000        0x0 c:/NXP/bstudio_nxp/workspace/ZigBee-LightLink-Test-1/Light_ColorTemperatureLight/Build/zcl_event.o (symbol from plugin)
 .text          0x0000000000000000        0x0 c:/NXP/bstudio_nxp/workspace/ZigBee-LightLink-Test-1/Light_ColorTemperatureLight/Build/zcl_heap.o (symbol from plugin)
 .text          0x0000000000000000        0x0 c:/NXP/bstudio_nxp/workspace/ZigBee-LightLink-Test-1/Light_ColorTemperatureLight/Build/zcl_library_options.o (symbol from plugin)
 .text          0x0000000000000000        0x0 c:/NXP/bstudio_nxp/workspace/ZigBee-LightLink-Test-1/Light_ColorTemperatureLight/Build/zcl_readAttributesRequestHandle.o (symbol from plugin)
 .text          0x0000000000000000        0x0 c:/NXP/bstudio_nxp/workspace/ZigBee-LightLink-Test-1/Light_ColorTemperatureLight/Build/zcl_readAttributesRequestSend.o (symbol from plugin)
 .text          0x0000000000000000        0x0 c:/NXP/bstudio_nxp/workspace/ZigBee-LightLink-Test-1/Light_ColorTemperatureLight/Build/zcl_readAttributesResponseHandle.o (symbol from plugin)
 .text          0x0000000000000000        0x0 c:/NXP/bstudio_nxp/workspace/ZigBee-LightLink-Test-1/Light_ColorTemperatureLight/Build/zcl_readReportingConfigurationCommandHandle.o (symbol from plugin)
 .text          0x0000000000000000        0x0 c:/NXP/bstudio_nxp/workspace/ZigBee-LightLink-Test-1/Light_ColorTemperatureLight/Build/zcl_readReportingConfigurationCommandSend.o (symbol from plugin)
 .text          0x0000000000000000        0x0 c:/NXP/bstudio_nxp/workspace/ZigBee-LightLink-Test-1/Light_ColorTemperatureLight/Build/zcl_readReportingConfigurationResponseHandle.o (symbol from plugin)
 .text          0x0000000000000000        0x0 c:/NXP/bstudio_nxp/workspace/ZigBee-LightLink-Test-1/Light_ColorTemperatureLight/Build/zcl_reportManager.o (symbol from plugin)
 .text          0x0000000000000000        0x0 c:/NXP/bstudio_nxp/workspace/ZigBee-LightLink-Test-1/Light_ColorTemperatureLight/Build/zcl_reportMaths.o (symbol from plugin)
 .text          0x0000000000000000        0x0 c:/NXP/bstudio_nxp/workspace/ZigBee-LightLink-Test-1/Light_ColorTemperatureLight/Build/zcl_reportScheduler.o (symbol from plugin)
 .text          0x0000000000000000        0x0 c:/NXP/bstudio_nxp/workspace/ZigBee-LightLink-Test-1/Light_ColorTemperatureLight/Build/zcl_reportStringHandling.o (symbol from plugin)
 .text          0x0000000000000000        0x0 c:/NXP/bstudio_nxp/workspace/ZigBee-LightLink-Test-1/Light_ColorTemperatureLight/Build/zcl_reportStructure.o (symbol from plugin)
 .text          0x0000000000000000        0x0 c:/NXP/bstudio_nxp/workspace/ZigBee-LightLink-Test-1/Light_ColorTemperatureLight/Build/zcl_search.o (symbol from plugin)
 .text          0x0000000000000000        0x0 c:/NXP/bstudio_nxp/workspace/ZigBee-LightLink-Test-1/Light_ColorTemperatureLight/Build/zcl_timer.o (symbol from plugin)
 .text          0x0000000000000000        0x0 c:/NXP/bstudio_nxp/workspace/ZigBee-LightLink-Test-1/Light_ColorTemperatureLight/Build/zcl_transmit.o (symbol from plugin)
 .text          0x0000000000000000        0x0 os.o (symbol from plugin)
 .data          0x0000000000000000        0x0 c:/NXP/bstudio_nxp/sdk/JN-SW-4168/Components/Library\libOS_JN516x.a(os_contirq_JN516x.o)
 .bss           0x0000000000000000        0x0 c:/NXP/bstudio_nxp/sdk/JN-SW-4168/Components/Library\libOS_JN516x.a(os_contirq_JN516x.o)
 .text          0x0000000000000000        0x0 pwrm.o (symbol from plugin)
 .data          0x0000000000000000        0x0 c:/NXP/bstudio_nxp/sdk/JN-SW-4168/Components/Library\libPWRM_JN516x.a(pwrm_setjmp_JN516x.o)
 .bss           0x0000000000000000        0x0 c:/NXP/bstudio_nxp/sdk/JN-SW-4168/Components/Library\libPWRM_JN516x.a(pwrm_setjmp_JN516x.o)
 .text          0x0000000000000000        0x0 pwrm_cold_start.o (symbol from plugin)
 .text          0x0000000000000000        0x0 pwrm_warm_start.o (symbol from plugin)
 .text          0x0000000000000000        0x0 pdum_nwk.o (symbol from plugin)
 .text          0x0000000000000000        0x0 pdum_apl.o (symbol from plugin)
 .text          0x0000000000000000        0x0 pdum.o (symbol from plugin)
 .text          0x0000000000000000        0x0 zps_apl_af.o (symbol from plugin)
 .text          0x0000000000000000        0x0 zps_apl_af_apsde.o (symbol from plugin)
 .text          0x0000000000000000        0x0 zps_apl_task.o (symbol from plugin)
 .text          0x0000000000000000        0x0 zps_apl_apsde.o (symbol from plugin)
 .text          0x0000000000000000        0x0 zps_apl_apsme.o (symbol from plugin)
 .text          0x0000000000000000        0x0 zps_apl_aps_nlde.o (symbol from plugin)
 .text          0x0000000000000000        0x0 zps_apl_sec.o (symbol from plugin)
 .text          0x0000000000000000        0x0 zps_apl_aib.o (symbol from plugin)
 .text          0x0000000000000000        0x0 zps_apl_zdo_nwkmanager.o (symbol from plugin)
 .text          0x0000000000000000        0x0 zps_apl_zdo_handle_zdp_event.o (symbol from plugin)
 .text          0x0000000000000000        0x0 zps_apl_zdo_trust_center.o (symbol from plugin)
 .text          0x0000000000000000        0x0 zps_apl_zdo_common.o (symbol from plugin)
 .text          0x0000000000000000        0x0 zps_apl_zdo_group.o (symbol from plugin)
 .text          0x0000000000000000        0x0 zps_apl_zdo_default_server.o (symbol from plugin)
 .text          0x0000000000000000        0x0 zps_apl_mac_isr.o (symbol from plugin)
 .text          0x0000000000000000        0x0 zps_apl_zdo_nwk_addr_server.o (symbol from plugin)
 .text          0x0000000000000000        0x0 zps_apl_zdo_ieee_addr_server.o (symbol from plugin)
 .text          0x0000000000000000        0x0 zps_apl_zdo_match_desc_server.o (symbol from plugin)
 .text          0x0000000000000000        0x0 zps_apl_zdo_node_desc_server.o (symbol from plugin)
 .text          0x0000000000000000        0x0 zps_apl_zdo_simple_desc_server.o (symbol from plugin)
 .text          0x0000000000000000        0x0 zps_apl_zdo_power_desc_server.o (symbol from plugin)
 .text          0x0000000000000000        0x0 zps_apl_zdo_active_ep_server.o (symbol from plugin)
 .text          0x0000000000000000        0x0 zps_apl_zdo_device_annce_server.o (symbol from plugin)
 .text          0x0000000000000000        0x0 zps_apl_zdo_permit_joining_server.o (symbol from plugin)
 .text          0x0000000000000000        0x0 zps_apl_zdo_system_server_discovery_server.o (symbol from plugin)
 .text          0x0000000000000000        0x0 zps_apl_zdo_mgmt_lqi_server.o (symbol from plugin)
 .text          0x0000000000000000        0x0 zps_apl_zdo_mgmt_rtg_server.o (symbol from plugin)
 .text          0x0000000000000000        0x0 zps_apl_zdo_mgmt_leave_server.o (symbol from plugin)
 .text          0x0000000000000000        0x0 zps_apl_zdo_mgmt_nwk_update_server.o (symbol from plugin)
 .text          0x0000000000000000        0x0 zps_apl_zdo_bound_data_request_manager.o (symbol from plugin)
 .text          0x0000000000000000        0x0 zps_apl_zdo_nwkmanager_client.o (symbol from plugin)
 .text          0x0000000000000000        0x0 zps_apl_zdp_apsde_req.o (symbol from plugin)
 .text          0x0000000000000000        0x0 zps_apl_zdp_device_annce.o (symbol from plugin)
 .text          0x0000000000000000        0x0 zps_apl_zdp_nwk_addr_rsp.o (symbol from plugin)
 .text          0x0000000000000000        0x0 zps_apl_zdp_ieee_addr_rsp.o (symbol from plugin)
 .text          0x0000000000000000        0x0 zps_apl_zdp_node_desc_rsp.o (symbol from plugin)
 .text          0x0000000000000000        0x0 zps_apl_zdp_power_desc_rsp.o (symbol from plugin)
 .text          0x0000000000000000        0x0 zps_apl_zdp_simple_desc_rsp.o (symbol from plugin)
 .text          0x0000000000000000        0x0 zps_apl_zdp_active_ep_rsp.o (symbol from plugin)
 .text          0x0000000000000000        0x0 zps_apl_zdp_match_desc_rsp.o (symbol from plugin)
 .text          0x0000000000000000        0x0 zps_apl_zdp_system_server_discovery_rsp.o (symbol from plugin)
 .text          0x0000000000000000        0x0 zps_apl_zdp_mgmt_lqi_rsp.o (symbol from plugin)
 .text          0x0000000000000000        0x0 zps_apl_zdp_mgmt_rtg_rsp.o (symbol from plugin)
 .text          0x0000000000000000        0x0 zps_apl_zdp_mgmt_leave_rsp.o (symbol from plugin)
 .text          0x0000000000000000        0x0 zps_apl_zdp_mgmt_nwk_update_notify_rsp.o (symbol from plugin)
 .text          0x0000000000000000        0x0 zps_apl_zdp_mgmt_permit_joining_rsp.o (symbol from plugin)
 .text          0x0000000000000000        0x0 zps_apl_zdo_bind_unbind_server.o (symbol from plugin)
 .text          0x0000000000000000        0x0 zps_apl_zdp_bind_rsp.o (symbol from plugin)
 .text          0x0000000000000000        0x0 zps_apl_zdp_unbind_rsp.o (symbol from plugin)
 .text          0x0000000000000000        0x0 rnd_main.o (symbol from plugin)
 .text          0x0000000000000000        0x0 PDM_Create.o (symbol from plugin)
 .text          0x0000000000000000        0x0 PDM_EEPROMsegmentStatus.o (symbol from plugin)
 .text          0x0000000000000000        0x0 PDM_FileSystem.o (symbol from plugin)
 .text          0x0000000000000000        0x0 PDM_FileSystemData.o (symbol from plugin)
 .text          0x0000000000000000        0x0 PDM_FileSystemDelete.o (symbol from plugin)
 .text          0x0000000000000000        0x0 PDM_FileSystemGenerate.o (symbol from plugin)
 .text          0x0000000000000000        0x0 PDM_FileSystemHeaderAccessFunctions.o (symbol from plugin)
 .text          0x0000000000000000        0x0 PDM_FileSystemHeaderRepair.o (symbol from plugin)
 .text          0x0000000000000000        0x0 PDM_FileSystemHeaderVerify.o (symbol from plugin)
 .text          0x0000000000000000        0x0 PDM_FileSystemMove.o (symbol from plugin)
 .text          0x0000000000000000        0x0 PDM_FileSystemVerify.o (symbol from plugin)
 .text          0x0000000000000000        0x0 PDM_ImageBitmapReconstruct.o (symbol from plugin)
 .text          0x0000000000000000        0x0 PDM_SearchAndListOrder.o (symbol from plugin)
 .text          0x0000000000000000        0x0 PDM_Segment.o (symbol from plugin)
 .text          0x0000000000000000        0x0 PDM_SegmentData.o (symbol from plugin)
 .text          0x0000000000000000        0x0 PDM_SegmentReplace.o (symbol from plugin)
 .text          0x0000000000000000        0x0 PDM_SegmentSequenceExtendDelete.o (symbol from plugin)
 .text          0x0000000000000000        0x0 PDM_SegmentSequenceExtendReconstruct.o (symbol from plugin)
 .text          0x0000000000000000        0x0 PDM_SegmentSequenceSave.o (symbol from plugin)
 .text          0x0000000000000000        0x0 PDM_slist.o (symbol from plugin)
 .text          0x0000000000000000        0x0 PDM_WearLevelling.o (symbol from plugin)
 .text          0x0000000000000000        0x0 PDM_Bitmap.o (symbol from plugin)
 .text          0x0000000000000000        0x0 PDM_EEPROMheaderAccessFunctions.o (symbol from plugin)
 .text          0x0000000000000000        0x0 PDM_EEPROMheaderReadAndWrite.o (symbol from plugin)
 .text          0x0000000000000000        0x0 PDM_EEPROMReadAndWrite.o (symbol from plugin)
 .text          0x0000000000000000        0x0 PDM_FileSystemHeaderChecksum.o (symbol from plugin)
 .text          0x0000000000000000        0x0 PDM_SegmentSequenceExtendFilter.o (symbol from plugin)
 .text          0x0000000000000000        0x0 PDM_EEPROM.o (symbol from plugin)
 .text          0x0000000000000000        0x0 dbg.o (symbol from plugin)
 .text          0x0000000000000000        0x0 dbg_uart.o (symbol from plugin)
 .text          0x0000000000000000        0x0 dbg_exceptions.o (symbol from plugin)
 .text          0x0000000000000000        0x0 zps_apl_zll.o (symbol from plugin)
 .text          0x0000000000000000        0x0 zps_apl_options.o (symbol from plugin)
 .text          0x0000000000000000        0x0 zps_nwk_dcim.o (symbol from plugin)
 .text          0x0000000000000000        0x0 zps_nwk_lib.o (symbol from plugin)
 .text          0x0000000000000000        0x0 zps_nwk_lkst.o (symbol from plugin)
 .text          0x0000000000000000        0x0 zps_nwk_main.o (symbol from plugin)
 .text          0x0000000000000000        0x0 zps_nwk_maint.o (symbol from plugin)
 .text          0x0000000000000000        0x0 zps_nwk_mcps.o (symbol from plugin)
 .text          0x0000000000000000        0x0 zps_nwk_mlme.o (symbol from plugin)
 .text          0x0000000000000000        0x0 zps_nwk_nib.o (symbol from plugin)
 .text          0x0000000000000000        0x0 zps_nwk_nlde.o (symbol from plugin)
 .text          0x0000000000000000        0x0 zps_nwk_nlme.o (symbol from plugin)
 .text          0x0000000000000000        0x0 zps_nwk_pmjn.o (symbol from plugin)
 .text          0x0000000000000000        0x0 zps_nwk_rt.o (symbol from plugin)
 .text          0x0000000000000000        0x0 zps_nwk_sec.o (symbol from plugin)
 .text          0x0000000000000000        0x0 zps_nwk_slist.o (symbol from plugin)
 .text          0x0000000000000000        0x0 zps_nwk_actv_st.o (symbol from plugin)
 .text          0x0000000000000000        0x0 zps_nwk_btt.o (symbol from plugin)
 .text          0x0000000000000000        0x0 zps_nwk_disc.o (symbol from plugin)
 .text          0x0000000000000000        0x0 zps_nwk_disc_st.o (symbol from plugin)
 .text          0x0000000000000000        0x0 zps_nwk_form_st.o (symbol from plugin)
 .text          0x0000000000000000        0x0 zps_nwk_frm.o (symbol from plugin)
 .text          0x0000000000000000        0x0 zps_nwk_idle_st.o (symbol from plugin)
 .text          0x0000000000000000        0x0 zps_nwk_join.o (symbol from plugin)
 .text          0x0000000000000000        0x0 zps_nwk_join_st.o (symbol from plugin)
 .text          0x0000000000000000        0x0 zps_nwk_leave.o (symbol from plugin)
 .text          0x0000000000000000        0x0 zps_nwk_mac.o (symbol from plugin)
 .text          0x0000000000000000        0x0 zps_nwk_scan.o (symbol from plugin)
 .text          0x0000000000000000        0x0 zps_nwk_sync.o (symbol from plugin)
 .text          0x0000000000000000        0x0 zps_nwk_form.o (symbol from plugin)
 .text          0x0000000000000000        0x0 JN5148ReCal.o (symbol from plugin)
 .text          0x0000000000000000        0x0 Mini_Main.o (symbol from plugin)
 .text          0x0000000000000000        0x0 Mini_Mcps.o (symbol from plugin)
 .text          0x0000000000000000        0x0 Mini_TimerServer.o (symbol from plugin)
 .text          0x0000000000000000        0x0 Mini_TxRx.o (symbol from plugin)
 .text          0x0000000000000000        0x0 Endian.o (symbol from plugin)
 .text          0x0000000000000000        0x0 Mini_Association.o (symbol from plugin)
 .text          0x0000000000000000        0x0 Mini_Running.o (symbol from plugin)
 .text          0x0000000000000000        0x0 Mini_Scan.o (symbol from plugin)
 .text          0x0000000000000000        0x0 Mini_Poll.o (symbol from plugin)
 .text          0x0000000000000000        0x0 Mini_Shim.o (symbol from plugin)
 .text          0x0000000000000000        0x0 MMAC.o (symbol from plugin)
 .text          0x0000000000000000        0x0 MMAC_RadioInit_JN516x.o (symbol from plugin)
 .text          0x0000000000000000        0x0 AEScoprocessorAPI.o (symbol from plugin)
 .text          0x0000000000000000        0x0 AEScoprocessorECB.o (symbol from plugin)
 .text          0x0000000000000000        0x0 AES_CCM_Star.o (symbol from plugin)
 .text          0x0000000000000000        0x0 AHI_Analogue.o (symbol from plugin)
 .text          0x0000000000000000        0x0 AHI_Dio.o (symbol from plugin)
 .text          0x0000000000000000        0x0 AHI_Reset.o (symbol from plugin)
 .text          0x0000000000000000        0x0 AHI_System.o (symbol from plugin)
 .text          0x0000000000000000        0x0 AHI_Timer.o (symbol from plugin)
 .text          0x0000000000000000        0x0 AHI_TimerInt.o (symbol from plugin)
 .text          0x0000000000000000        0x0 AHI_Uart.o (symbol from plugin)
 .text          0x0000000000000000        0x0 AHI_WakeTimer.o (symbol from plugin)
 .text          0x0000000000000000        0x0 AHI_Flash.o (symbol from plugin)
 .text          0x0000000000000000        0x0 AHI_Infrared.o (symbol from plugin)
 .text          0x0000000000000000        0x0 InternalFlashApi.o (symbol from plugin)
 .text          0x0000000000000000        0x0 EEP_EEPROM.o (symbol from plugin)
 .text          0x0000000000000000        0x0 AHI_TickTimer.o (symbol from plugin)
 .data          0x0000000000000000        0x0 c:/NXP/bstudio_nxp/sdk/JN-SW-4168/Components/Library\libHardwareApi_JN516x.a(AHI_Interrupt.o)
 .bss           0x0000000000000000        0x0 c:/NXP/bstudio_nxp/sdk/JN-SW-4168/Components/Library\libHardwareApi_JN516x.a(AHI_Interrupt.o)
 .text          0x0000000000000000        0x0 AHI_Spi.o (symbol from plugin)
 .text          0x0000000000000000        0x0 MicroInt_ba.o (symbol from plugin)
 .text          0x0000000000000000        0x0 c:/NXP/bstudio_nxp/sdk/JN-SW-4168/Components/Library\libMicroSpecific_JN516x.a(MicroSyscall_ba.o)
 .data          0x0000000000000000        0x0 c:/NXP/bstudio_nxp/sdk/JN-SW-4168/Components/Library\libMicroSpecific_JN516x.a(MicroSyscall_ba.o)
 .bss           0x0000000000000000        0x0 c:/NXP/bstudio_nxp/sdk/JN-SW-4168/Components/Library\libMicroSpecific_JN516x.a(MicroSyscall_ba.o)
 .text          0x0000000000000000        0x0 Heap.o (symbol from plugin)
 .text          0x0000000000000000        0x0 c:/NXP/bstudio_nxp/sdk/JN-SW-4168/Components/Library\libBoot_JN516x.a(ExceptionHandler.o)
 .data          0x0000000000000000        0x0 c:/NXP/bstudio_nxp/sdk/JN-SW-4168/Components/Library\libBoot_JN516x.a(ExceptionHandler.o)
 .bss           0x0000000000000000        0x0 c:/NXP/bstudio_nxp/sdk/JN-SW-4168/Components/Library\libBoot_JN516x.a(ExceptionHandler.o)
 .vsr_handlers  0x0000000000000000       0xa7 c:/NXP/bstudio_nxp/sdk/JN-SW-4168/Components/Library\libBoot_JN516x.a(ExceptionHandler.o)
 .text          0x0000000000000000        0x0 zps_miniMac.o (symbol from plugin)
 .text          0x0000000000000000        0x0 zps_tsv.o (symbol from plugin)
 .text          0x0000000000000000        0x0 aes_sw_hmac_mmo.o (symbol from plugin)
 .text          0x0000000000000000        0x0 aes_sw_mmo.o (symbol from plugin)
 .text          0x0000000000000000        0x0 zps_apl_inl.o (symbol from plugin)
 .text          0x0000000000000000        0x0 zps_apl_zdo_bind_manager.o (symbol from plugin)
 .text          0x0000000000000000        0x0 zps_apl_zdp_active_ep_req.o (symbol from plugin)
 .text          0x0000000000000000        0x0 zps_apl_zdp_active_ep_store_req.o (symbol from plugin)
 .text          0x0000000000000000        0x0 zps_apl_zdp_backup_source_bind_req.o (symbol from plugin)
 .text          0x0000000000000000        0x0 zps_apl_zdp_bind_register_req.o (symbol from plugin)
 .text          0x0000000000000000        0x0 zps_apl_zdp_bind_unbind_req.o (symbol from plugin)
 .text          0x0000000000000000        0x0 zps_apl_zdp_bkup_bind_table_req.o (symbol from plugin)
 .text          0x0000000000000000        0x0 zps_apl_zdp_complex_desc_req.o (symbol from plugin)
 .text          0x0000000000000000        0x0 zps_apl_zdp_discovery_cache_req.o (symbol from plugin)
 .text          0x0000000000000000        0x0 zps_apl_zdp_discovery_store_req.o (symbol from plugin)
 .text          0x0000000000000000        0x0 zps_apl_zdp_end_device_bind_req.o (symbol from plugin)
 .text          0x0000000000000000        0x0 zps_apl_zdp_extended_active_ep_req.o (symbol from plugin)
 .text          0x0000000000000000        0x0 zps_apl_zdp_extended_simple_desc_req.o (symbol from plugin)
 .text          0x0000000000000000        0x0 zps_apl_zdp_find_node_cache_req.o (symbol from plugin)
 .text          0x0000000000000000        0x0 zps_apl_zdp_ieee_addr_req.o (symbol from plugin)
 .text          0x0000000000000000        0x0 zps_apl_zdp_match_desc_req.o (symbol from plugin)
 .text          0x0000000000000000        0x0 zps_apl_zdp_mgmt_bind_req.o (symbol from plugin)
 .text          0x0000000000000000        0x0 zps_apl_zdp_mgmt_cache_req.o (symbol from plugin)
 .text          0x0000000000000000        0x0 zps_apl_zdp_mgmt_direct_join_req.o (symbol from plugin)
 .text          0x0000000000000000        0x0 zps_apl_zdp_mgmt_leave_req.o (symbol from plugin)
 .text          0x0000000000000000        0x0 zps_apl_zdp_mgmt_lqi_req.o (symbol from plugin)
 .text          0x0000000000000000        0x0 zps_apl_zdp_mgmt_nwk_disc_req.o (symbol from plugin)
 .text          0x0000000000000000        0x0 zps_apl_zdp_mgmt_nwk_update_req.o (symbol from plugin)
 .text          0x0000000000000000        0x0 zps_apl_zdp_mgmt_permit_joining_req.o (symbol from plugin)
 .text          0x0000000000000000        0x0 zps_apl_zdp_mgmt_rtg_req.o (symbol from plugin)
 .text          0x0000000000000000        0x0 zps_apl_zdp_node_desc_req.o (symbol from plugin)
 .text          0x0000000000000000        0x0 zps_apl_zdp_nwk_addr_req.o (symbol from plugin)
 .text          0x0000000000000000        0x0 zps_apl_zdp_power_desc_req.o (symbol from plugin)
 .text          0x0000000000000000        0x0 zps_apl_zdp_power_desc_store_req.o (symbol from plugin)
 .text          0x0000000000000000        0x0 zps_apl_zdp_recover_bind_table_req.o (symbol from plugin)
 .text          0x0000000000000000        0x0 zps_apl_zdp_recover_source_bind_req.o (symbol from plugin)
 .text          0x0000000000000000        0x0 zps_apl_zdp_remove_bkup_bind_entry_req.o (symbol from plugin)
 .text          0x0000000000000000        0x0 zps_apl_zdp_remove_node_cache_req.o (symbol from plugin)
 .text          0x0000000000000000        0x0 zps_apl_zdp_replace_device_req.o (symbol from plugin)
 .text          0x0000000000000000        0x0 zps_apl_zdp_simple_desc_req.o (symbol from plugin)
 .text          0x0000000000000000        0x0 zps_apl_zdp_simple_desc_store_req.o (symbol from plugin)
 .text          0x0000000000000000        0x0 zps_apl_zdp_system_server_discovery_req.o (symbol from plugin)
 .text          0x0000000000000000        0x0 zps_apl_zdp_store_bkup_bind_entry_req.o (symbol from plugin)
 .text          0x0000000000000000        0x0 zps_apl_zdp_node_desc_store_req.o (symbol from plugin)
 .text          0x0000000000000000        0x0 zps_apl_zdp_user_desc_req.o (symbol from plugin)
 .text          0x0000000000000000        0x0 zps_apl_zdp_user_desc_set.o (symbol from plugin)
 .data          0x0000000000000000        0x0 c:/NXP/bstudio_nxp/sdk/JN-SW-4168/Components/Library\libOS_JN516x.a(os_version_lc.o)
 .bss           0x0000000000000000        0x0 c:/NXP/bstudio_nxp/sdk/JN-SW-4168/Components/Library\libOS_JN516x.a(os_version_lc.o)
 .data          0x0000000000000000        0x0 c:/NXP/bstudio_nxp/sdk/JN-SW-4168/Components/Library\libZPSAPL_JN516x.a(zps_apl_version_lc.o)
 .bss           0x0000000000000000        0x0 c:/NXP/bstudio_nxp/sdk/JN-SW-4168/Components/Library\libZPSAPL_JN516x.a(zps_apl_version_lc.o)
 .data          0x0000000000000000        0x0 c:/NXP/bstudio_nxp/sdk/JN-SW-4168/Components/Library\libZPSNWK_JN516x.a(zps_nwk_version_lc.o)
 .bss           0x0000000000000000        0x0 c:/NXP/bstudio_nxp/sdk/JN-SW-4168/Components/Library\libZPSNWK_JN516x.a(zps_nwk_version_lc.o)

Memory Configuration

Name             Origin             Length             Attributes
flash            0x0000000000080000 0x0000000000040000
ram              0x000000000400004c 0x0000000000007fb4
*default*        0x0000000000000000 0xffffffffffffffff

Linker script and memory map

                0x0000000000001388                __stack_size = 0x1388
                0x00000000000007d0                __minimum_heap_size = 0x7d0
START GROUP
LOAD c:/NXP/bstudio_nxp/workspace/ZigBee-LightLink-Test-1/Light_ColorTemperatureLight/Build/os_gen.o
LOAD C:\Users\brend\AppData\Local\Temp\ccheh5G2.ltrans0.ltrans.o
LOAD C:\Users\brend\AppData\Local\Temp\ccheh5G2.ltrans1.ltrans.o
LOAD C:\Users\brend\AppData\Local\Temp\ccheh5G2.ltrans2.ltrans.o
LOAD C:\Users\brend\AppData\Local\Temp\ccheh5G2.ltrans3.ltrans.o
LOAD C:\Users\brend\AppData\Local\Temp\ccheh5G2.ltrans4.ltrans.o
LOAD C:\Users\brend\AppData\Local\Temp\ccheh5G2.ltrans5.ltrans.o
LOAD C:\Users\brend\AppData\Local\Temp\ccheh5G2.ltrans6.ltrans.o
LOAD C:\Users\brend\AppData\Local\Temp\ccheh5G2.ltrans7.ltrans.o
LOAD C:\Users\brend\AppData\Local\Temp\ccheh5G2.ltrans8.ltrans.o
LOAD C:\Users\brend\AppData\Local\Temp\ccheh5G2.ltrans9.ltrans.o
LOAD C:\Users\brend\AppData\Local\Temp\ccheh5G2.ltrans10.ltrans.o
LOAD C:\Users\brend\AppData\Local\Temp\ccheh5G2.ltrans11.ltrans.o
LOAD C:\Users\brend\AppData\Local\Temp\ccheh5G2.ltrans12.ltrans.o
LOAD C:\Users\brend\AppData\Local\Temp\ccheh5G2.ltrans13.ltrans.o
LOAD C:\Users\brend\AppData\Local\Temp\ccheh5G2.ltrans14.ltrans.o
LOAD C:\Users\brend\AppData\Local\Temp\ccheh5G2.ltrans15.ltrans.o
LOAD C:\Users\brend\AppData\Local\Temp\ccheh5G2.ltrans16.ltrans.o
LOAD C:\Users\brend\AppData\Local\Temp\ccheh5G2.ltrans17.ltrans.o
LOAD C:\Users\brend\AppData\Local\Temp\ccheh5G2.ltrans18.ltrans.o
LOAD C:\Users\brend\AppData\Local\Temp\ccheh5G2.ltrans19.ltrans.o
LOAD C:\Users\brend\AppData\Local\Temp\ccheh5G2.ltrans20.ltrans.o
LOAD C:\Users\brend\AppData\Local\Temp\ccheh5G2.ltrans21.ltrans.o
LOAD C:\Users\brend\AppData\Local\Temp\ccheh5G2.ltrans22.ltrans.o
LOAD C:\Users\brend\AppData\Local\Temp\ccheh5G2.ltrans23.ltrans.o
LOAD C:\Users\brend\AppData\Local\Temp\ccheh5G2.ltrans24.ltrans.o
LOAD C:\Users\brend\AppData\Local\Temp\ccheh5G2.ltrans25.ltrans.o
LOAD C:\Users\brend\AppData\Local\Temp\ccheh5G2.ltrans26.ltrans.o
LOAD C:\Users\brend\AppData\Local\Temp\ccheh5G2.ltrans27.ltrans.o
LOAD C:\Users\brend\AppData\Local\Temp\ccheh5G2.ltrans28.ltrans.o
LOAD C:\Users\brend\AppData\Local\Temp\ccheh5G2.ltrans29.ltrans.o
LOAD C:\Users\brend\AppData\Local\Temp\ccheh5G2.ltrans30.ltrans.o
LOAD C:\Users\brend\AppData\Local\Temp\ccheh5G2.ltrans31.ltrans.o
LOAD c:/nxp/bstudio_nxp/sdk/tools/ba-elf-ba2-r36379/bin/../lib/gcc/ba-elf/4.7.4/../../../../ba-elf/lib/mcpu_jn51xx_sizeopt\libc.a
LOAD c:/nxp/bstudio_nxp/sdk/tools/ba-elf-ba2-r36379/bin/../lib/gcc/ba-elf/4.7.4/mcpu_jn51xx_sizeopt\libgcc.a
LOAD c:/nxp/bstudio_nxp/sdk/tools/ba-elf-ba2-r36379/bin/../lib/gcc/ba-elf/4.7.4/../../../../ba-elf/lib/mcpu_jn51xx_sizeopt\libc.a
LOAD c:/NXP/bstudio_nxp/workspace/ZigBee-LightLink-Test-1/Light_ColorTemperatureLight/Build/os_irq.o
LOAD c:/NXP/bstudio_nxp/workspace/ZigBee-LightLink-Test-1/Light_ColorTemperatureLight/Build/os_irq_alignment.o
LOAD c:/NXP/bstudio_nxp/workspace/ZigBee-LightLink-Test-1/Light_ColorTemperatureLight/Build/os_irq_buserror.o
LOAD c:/NXP/bstudio_nxp/workspace/ZigBee-LightLink-Test-1/Light_ColorTemperatureLight/Build/os_irq_illegalinstruction.o
LOAD c:/NXP/bstudio_nxp/workspace/ZigBee-LightLink-Test-1/Light_ColorTemperatureLight/Build/os_irq_stackoverflowexception.o
LOAD c:/NXP/bstudio_nxp/workspace/ZigBee-LightLink-Test-1/Light_ColorTemperatureLight/Build/os_irq_unimplementedmodule.o
LOAD c:/NXP/bstudio_nxp/workspace/ZigBee-LightLink-Test-1/Light_ColorTemperatureLight/Build/pdum_gen.o
LOAD c:/NXP/bstudio_nxp/workspace/ZigBee-LightLink-Test-1/Light_ColorTemperatureLight/Build/pdum_apdu.o
LOAD c:/NXP/bstudio_nxp/workspace/ZigBee-LightLink-Test-1/Light_ColorTemperatureLight/Build/zps_gen.o
LOAD c:/NXP/bstudio_nxp/workspace/ZigBee-LightLink-Test-1/Light_ColorTemperatureLight/Build/app_timer_driver.o
LOAD c:/NXP/bstudio_nxp/workspace/ZigBee-LightLink-Test-1/Light_ColorTemperatureLight/Build/app_start_light.o
LOAD c:/NXP/bstudio_nxp/workspace/ZigBee-LightLink-Test-1/Light_ColorTemperatureLight/Build/app_scenes.o
LOAD c:/NXP/bstudio_nxp/workspace/ZigBee-LightLink-Test-1/Light_ColorTemperatureLight/Build/app_power_on_counter.o
LOAD c:/NXP/bstudio_nxp/workspace/ZigBee-LightLink-Test-1/Light_ColorTemperatureLight/Build/zpr_light_node.o
LOAD c:/NXP/bstudio_nxp/workspace/ZigBee-LightLink-Test-1/Light_ColorTemperatureLight/Build/ecb_decrypt.o
LOAD c:/NXP/bstudio_nxp/workspace/ZigBee-LightLink-Test-1/Light_ColorTemperatureLight/Build/app_zcl_light_task.o
LOAD c:/NXP/bstudio_nxp/workspace/ZigBee-LightLink-Test-1/Light_ColorTemperatureLight/Build/app_light_commission_task.o
LOAD c:/NXP/bstudio_nxp/workspace/ZigBee-LightLink-Test-1/Light_ColorTemperatureLight/Build/app_manage_temperature.o
LOAD c:/NXP/bstudio_nxp/workspace/ZigBee-LightLink-Test-1/Light_ColorTemperatureLight/Build/app_light_interpolation.o
LOAD c:/NXP/bstudio_nxp/workspace/ZigBee-LightLink-Test-1/Light_ColorTemperatureLight/Build/appZpsBeaconHandler.o
LOAD c:/NXP/bstudio_nxp/workspace/ZigBee-LightLink-Test-1/Light_ColorTemperatureLight/Build/App_Light_ColorTemperatureLight.o
LOAD c:/NXP/bstudio_nxp/workspace/ZigBee-LightLink-Test-1/Light_ColorTemperatureLight/Build/DriverBulb_DR1221_Dimic.o
LOAD c:/NXP/bstudio_nxp/workspace/ZigBee-LightLink-Test-1/Light_ColorTemperatureLight/Build/DriverBulb_Shim.o
LOAD c:/NXP/bstudio_nxp/workspace/ZigBee-LightLink-Test-1/Light_ColorTemperatureLight/Build/Alarms.o
LOAD c:/NXP/bstudio_nxp/workspace/ZigBee-LightLink-Test-1/Light_ColorTemperatureLight/Build/AlarmsClientCommands.o
LOAD c:/NXP/bstudio_nxp/workspace/ZigBee-LightLink-Test-1/Light_ColorTemperatureLight/Build/AlarmsCommandHandler.o
LOAD c:/NXP/bstudio_nxp/workspace/ZigBee-LightLink-Test-1/Light_ColorTemperatureLight/Build/AlarmsServerCommands.o
LOAD c:/NXP/bstudio_nxp/workspace/ZigBee-LightLink-Test-1/Light_ColorTemperatureLight/Build/AlarmsTableManager.o
LOAD c:/NXP/bstudio_nxp/workspace/ZigBee-LightLink-Test-1/Light_ColorTemperatureLight/Build/AnalogInputBasic.o
LOAD c:/NXP/bstudio_nxp/workspace/ZigBee-LightLink-Test-1/Light_ColorTemperatureLight/Build/AnalogOutputBasic.o
LOAD c:/NXP/bstudio_nxp/workspace/ZigBee-LightLink-Test-1/Light_ColorTemperatureLight/Build/Basic.o
LOAD c:/NXP/bstudio_nxp/workspace/ZigBee-LightLink-Test-1/Light_ColorTemperatureLight/Build/BasicClientCommands.o
LOAD c:/NXP/bstudio_nxp/workspace/ZigBee-LightLink-Test-1/Light_ColorTemperatureLight/Build/BasicCommandHandler.o
LOAD c:/NXP/bstudio_nxp/workspace/ZigBee-LightLink-Test-1/Light_ColorTemperatureLight/Build/BinaryInputBasic.o
LOAD c:/NXP/bstudio_nxp/workspace/ZigBee-LightLink-Test-1/Light_ColorTemperatureLight/Build/BinaryOutputBasic.o
LOAD c:/NXP/bstudio_nxp/workspace/ZigBee-LightLink-Test-1/Light_ColorTemperatureLight/Build/Commissioning.o
LOAD c:/NXP/bstudio_nxp/workspace/ZigBee-LightLink-Test-1/Light_ColorTemperatureLight/Build/DeviceTemperatureConfiguration.o
LOAD c:/NXP/bstudio_nxp/workspace/ZigBee-LightLink-Test-1/Light_ColorTemperatureLight/Build/Diagnostics.o
LOAD c:/NXP/bstudio_nxp/workspace/ZigBee-LightLink-Test-1/Light_ColorTemperatureLight/Build/DoorLock.o
LOAD c:/NXP/bstudio_nxp/workspace/ZigBee-LightLink-Test-1/Light_ColorTemperatureLight/Build/DoorLockCommandHandler.o
LOAD c:/NXP/bstudio_nxp/workspace/ZigBee-LightLink-Test-1/Light_ColorTemperatureLight/Build/DoorLockCommands.o
LOAD c:/NXP/bstudio_nxp/workspace/ZigBee-LightLink-Test-1/Light_ColorTemperatureLight/Build/ElectricalMeasurement.o
LOAD c:/NXP/bstudio_nxp/workspace/ZigBee-LightLink-Test-1/Light_ColorTemperatureLight/Build/Groups.o
LOAD c:/NXP/bstudio_nxp/workspace/ZigBee-LightLink-Test-1/Light_ColorTemperatureLight/Build/GroupsClientCommands.o
LOAD c:/NXP/bstudio_nxp/workspace/ZigBee-LightLink-Test-1/Light_ColorTemperatureLight/Build/GroupsCommandHandler.o
LOAD c:/NXP/bstudio_nxp/workspace/ZigBee-LightLink-Test-1/Light_ColorTemperatureLight/Build/GroupsServerCommands.o
LOAD c:/NXP/bstudio_nxp/workspace/ZigBee-LightLink-Test-1/Light_ColorTemperatureLight/Build/GroupsTableManager.o
LOAD c:/NXP/bstudio_nxp/workspace/ZigBee-LightLink-Test-1/Light_ColorTemperatureLight/Build/Identify.o
LOAD c:/NXP/bstudio_nxp/workspace/ZigBee-LightLink-Test-1/Light_ColorTemperatureLight/Build/IdentifyClientCommands.o
LOAD c:/NXP/bstudio_nxp/workspace/ZigBee-LightLink-Test-1/Light_ColorTemperatureLight/Build/IdentifyCommandHandler.o
LOAD c:/NXP/bstudio_nxp/workspace/ZigBee-LightLink-Test-1/Light_ColorTemperatureLight/Build/IdentifyServerCommands.o
LOAD c:/NXP/bstudio_nxp/workspace/ZigBee-LightLink-Test-1/Light_ColorTemperatureLight/Build/LevelControl.o
LOAD c:/NXP/bstudio_nxp/workspace/ZigBee-LightLink-Test-1/Light_ColorTemperatureLight/Build/LevelControlClientCommands.o
LOAD c:/NXP/bstudio_nxp/workspace/ZigBee-LightLink-Test-1/Light_ColorTemperatureLight/Build/LevelControlCommandHandler.o
LOAD c:/NXP/bstudio_nxp/workspace/ZigBee-LightLink-Test-1/Light_ColorTemperatureLight/Build/MultistateInputBasic.o
LOAD c:/NXP/bstudio_nxp/workspace/ZigBee-LightLink-Test-1/Light_ColorTemperatureLight/Build/MultistateOutputBasic.o
LOAD c:/NXP/bstudio_nxp/workspace/ZigBee-LightLink-Test-1/Light_ColorTemperatureLight/Build/OOSC.o
LOAD c:/NXP/bstudio_nxp/workspace/ZigBee-LightLink-Test-1/Light_ColorTemperatureLight/Build/OnOff.o
LOAD c:/NXP/bstudio_nxp/workspace/ZigBee-LightLink-Test-1/Light_ColorTemperatureLight/Build/OnOffCommandHandler.o
LOAD c:/NXP/bstudio_nxp/workspace/ZigBee-LightLink-Test-1/Light_ColorTemperatureLight/Build/OnOffCommands.o
LOAD c:/NXP/bstudio_nxp/workspace/ZigBee-LightLink-Test-1/Light_ColorTemperatureLight/Build/PollControl.o
LOAD c:/NXP/bstudio_nxp/workspace/ZigBee-LightLink-Test-1/Light_ColorTemperatureLight/Build/PollControlClientCommands.o
LOAD c:/NXP/bstudio_nxp/workspace/ZigBee-LightLink-Test-1/Light_ColorTemperatureLight/Build/PollControlCommandHandler.o
LOAD c:/NXP/bstudio_nxp/workspace/ZigBee-LightLink-Test-1/Light_ColorTemperatureLight/Build/PollControlServerCommands.o
LOAD c:/NXP/bstudio_nxp/workspace/ZigBee-LightLink-Test-1/Light_ColorTemperatureLight/Build/PowerConfiguration.o
LOAD c:/NXP/bstudio_nxp/workspace/ZigBee-LightLink-Test-1/Light_ColorTemperatureLight/Build/Scenes.o
LOAD c:/NXP/bstudio_nxp/workspace/ZigBee-LightLink-Test-1/Light_ColorTemperatureLight/Build/ScenesClientCommands.o
LOAD c:/NXP/bstudio_nxp/workspace/ZigBee-LightLink-Test-1/Light_ColorTemperatureLight/Build/ScenesClusterManagement.o
LOAD c:/NXP/bstudio_nxp/workspace/ZigBee-LightLink-Test-1/Light_ColorTemperatureLight/Build/ScenesCommandHandler.o
LOAD c:/NXP/bstudio_nxp/workspace/ZigBee-LightLink-Test-1/Light_ColorTemperatureLight/Build/ScenesServerCommands.o
LOAD c:/NXP/bstudio_nxp/workspace/ZigBee-LightLink-Test-1/Light_ColorTemperatureLight/Build/ScenesTableManager.o
LOAD c:/NXP/bstudio_nxp/workspace/ZigBee-LightLink-Test-1/Light_ColorTemperatureLight/Build/TC.o
LOAD c:/NXP/bstudio_nxp/workspace/ZigBee-LightLink-Test-1/Light_ColorTemperatureLight/Build/Time.o
LOAD c:/NXP/bstudio_nxp/workspace/ZigBee-LightLink-Test-1/Light_ColorTemperatureLight/Build/zll_CommissionCmdHandler.o
LOAD c:/NXP/bstudio_nxp/workspace/ZigBee-LightLink-Test-1/Light_ColorTemperatureLight/Build/zll_UtilityCmdHandler.o
LOAD c:/NXP/bstudio_nxp/workspace/ZigBee-LightLink-Test-1/Light_ColorTemperatureLight/Build/zll_commission.o
LOAD c:/NXP/bstudio_nxp/workspace/ZigBee-LightLink-Test-1/Light_ColorTemperatureLight/Build/zll_utility.o
LOAD c:/NXP/bstudio_nxp/workspace/ZigBee-LightLink-Test-1/Light_ColorTemperatureLight/Build/colour_light.o
LOAD c:/NXP/bstudio_nxp/workspace/ZigBee-LightLink-Test-1/Light_ColorTemperatureLight/Build/colour_remote.o
LOAD c:/NXP/bstudio_nxp/workspace/ZigBee-LightLink-Test-1/Light_ColorTemperatureLight/Build/colour_scene_remote.o
LOAD c:/NXP/bstudio_nxp/workspace/ZigBee-LightLink-Test-1/Light_ColorTemperatureLight/Build/colour_temperature_light.o
LOAD c:/NXP/bstudio_nxp/workspace/ZigBee-LightLink-Test-1/Light_ColorTemperatureLight/Build/commission_endpoint.o
LOAD c:/NXP/bstudio_nxp/workspace/ZigBee-LightLink-Test-1/Light_ColorTemperatureLight/Build/control_bridge.o
LOAD c:/NXP/bstudio_nxp/workspace/ZigBee-LightLink-Test-1/Light_ColorTemperatureLight/Build/dimmable_light.o
LOAD c:/NXP/bstudio_nxp/workspace/ZigBee-LightLink-Test-1/Light_ColorTemperatureLight/Build/dimmable_plug.o
LOAD c:/NXP/bstudio_nxp/workspace/ZigBee-LightLink-Test-1/Light_ColorTemperatureLight/Build/extended_colour_light.o
LOAD c:/NXP/bstudio_nxp/workspace/ZigBee-LightLink-Test-1/Light_ColorTemperatureLight/Build/non_colour_remote.o
LOAD c:/NXP/bstudio_nxp/workspace/ZigBee-LightLink-Test-1/Light_ColorTemperatureLight/Build/non_colour_scene_remote.o
LOAD c:/NXP/bstudio_nxp/workspace/ZigBee-LightLink-Test-1/Light_ColorTemperatureLight/Build/on_off_light.o
LOAD c:/NXP/bstudio_nxp/workspace/ZigBee-LightLink-Test-1/Light_ColorTemperatureLight/Build/on_off_plug.o
LOAD c:/NXP/bstudio_nxp/workspace/ZigBee-LightLink-Test-1/Light_ColorTemperatureLight/Build/on_off_sensor.o
LOAD c:/NXP/bstudio_nxp/workspace/ZigBee-LightLink-Test-1/Light_ColorTemperatureLight/Build/zll.o
LOAD c:/NXP/bstudio_nxp/workspace/ZigBee-LightLink-Test-1/Light_ColorTemperatureLight/Build/BallastConfiguration.o
LOAD c:/NXP/bstudio_nxp/workspace/ZigBee-LightLink-Test-1/Light_ColorTemperatureLight/Build/ColourControl.o
LOAD c:/NXP/bstudio_nxp/workspace/ZigBee-LightLink-Test-1/Light_ColorTemperatureLight/Build/ColourControlClientCommands.o
LOAD c:/NXP/bstudio_nxp/workspace/ZigBee-LightLink-Test-1/Light_ColorTemperatureLight/Build/ColourControlCommandHandler.o
LOAD c:/NXP/bstudio_nxp/workspace/ZigBee-LightLink-Test-1/Light_ColorTemperatureLight/Build/ColourControlConversions.o
LOAD c:/NXP/bstudio_nxp/workspace/ZigBee-LightLink-Test-1/Light_ColorTemperatureLight/Build/dlist.o
LOAD c:/NXP/bstudio_nxp/workspace/ZigBee-LightLink-Test-1/Light_ColorTemperatureLight/Build/zcl.o
LOAD c:/NXP/bstudio_nxp/workspace/ZigBee-LightLink-Test-1/Light_ColorTemperatureLight/Build/zcl_CustomCommandReceive.o
LOAD c:/NXP/bstudio_nxp/workspace/ZigBee-LightLink-Test-1/Light_ColorTemperatureLight/Build/zcl_CustomCommandSend.o
LOAD c:/NXP/bstudio_nxp/workspace/ZigBee-LightLink-Test-1/Light_ColorTemperatureLight/Build/zcl_PDUbufferReadWrite.o
LOAD c:/NXP/bstudio_nxp/workspace/ZigBee-LightLink-Test-1/Light_ColorTemperatureLight/Build/zcl_PDUbufferReadWriteString.o
LOAD c:/NXP/bstudio_nxp/workspace/ZigBee-LightLink-Test-1/Light_ColorTemperatureLight/Build/zcl_WriteAttributesRequestHandle.o
LOAD c:/NXP/bstudio_nxp/workspace/ZigBee-LightLink-Test-1/Light_ColorTemperatureLight/Build/zcl_WriteAttributesRequestSend.o
LOAD c:/NXP/bstudio_nxp/workspace/ZigBee-LightLink-Test-1/Light_ColorTemperatureLight/Build/zcl_WriteAttributesResponseHandle.o
LOAD c:/NXP/bstudio_nxp/workspace/ZigBee-LightLink-Test-1/Light_ColorTemperatureLight/Build/zcl_attribute.o
LOAD c:/NXP/bstudio_nxp/workspace/ZigBee-LightLink-Test-1/Light_ColorTemperatureLight/Build/zcl_buffer.o
LOAD c:/NXP/bstudio_nxp/workspace/ZigBee-LightLink-Test-1/Light_ColorTemperatureLight/Build/zcl_clusterCommand.o
LOAD c:/NXP/bstudio_nxp/workspace/ZigBee-LightLink-Test-1/Light_ColorTemperatureLight/Build/zcl_command.o
LOAD c:/NXP/bstudio_nxp/workspace/ZigBee-LightLink-Test-1/Light_ColorTemperatureLight/Build/zcl_configureReportingCommandHandle.o
LOAD c:/NXP/bstudio_nxp/workspace/ZigBee-LightLink-Test-1/Light_ColorTemperatureLight/Build/zcl_configureReportingCommandSend.o
LOAD c:/NXP/bstudio_nxp/workspace/ZigBee-LightLink-Test-1/Light_ColorTemperatureLight/Build/zcl_configureReportingResponseHandle.o
LOAD c:/NXP/bstudio_nxp/workspace/ZigBee-LightLink-Test-1/Light_ColorTemperatureLight/Build/zcl_defaultResponse.o
LOAD c:/NXP/bstudio_nxp/workspace/ZigBee-LightLink-Test-1/Light_ColorTemperatureLight/Build/zcl_discoverAttributesExtendedRequestHandle.o
LOAD c:/NXP/bstudio_nxp/workspace/ZigBee-LightLink-Test-1/Light_ColorTemperatureLight/Build/zcl_discoverAttributesExtendedRequestSend.o
LOAD c:/NXP/bstudio_nxp/workspace/ZigBee-LightLink-Test-1/Light_ColorTemperatureLight/Build/zcl_discoverAttributesExtendedResponseHandle.o
LOAD c:/NXP/bstudio_nxp/workspace/ZigBee-LightLink-Test-1/Light_ColorTemperatureLight/Build/zcl_discoverAttributesRequestHandle.o
LOAD c:/NXP/bstudio_nxp/workspace/ZigBee-LightLink-Test-1/Light_ColorTemperatureLight/Build/zcl_discoverAttributesRequestSend.o
LOAD c:/NXP/bstudio_nxp/workspace/ZigBee-LightLink-Test-1/Light_ColorTemperatureLight/Build/zcl_discoverAttributesResponseHandle.o
LOAD c:/NXP/bstudio_nxp/workspace/ZigBee-LightLink-Test-1/Light_ColorTemperatureLight/Build/zcl_discoverCommandsRequestHandle.o
LOAD c:/NXP/bstudio_nxp/workspace/ZigBee-LightLink-Test-1/Light_ColorTemperatureLight/Build/zcl_discoverCommandsRequestSend.o
LOAD c:/NXP/bstudio_nxp/workspace/ZigBee-LightLink-Test-1/Light_ColorTemperatureLight/Build/zcl_discoverCommandsResponseHandle.o
LOAD c:/NXP/bstudio_nxp/workspace/ZigBee-LightLink-Test-1/Light_ColorTemperatureLight/Build/zcl_event.o
LOAD c:/NXP/bstudio_nxp/workspace/ZigBee-LightLink-Test-1/Light_ColorTemperatureLight/Build/zcl_heap.o
LOAD c:/NXP/bstudio_nxp/workspace/ZigBee-LightLink-Test-1/Light_ColorTemperatureLight/Build/zcl_library_options.o
LOAD c:/NXP/bstudio_nxp/workspace/ZigBee-LightLink-Test-1/Light_ColorTemperatureLight/Build/zcl_readAttributesRequestHandle.o
LOAD c:/NXP/bstudio_nxp/workspace/ZigBee-LightLink-Test-1/Light_ColorTemperatureLight/Build/zcl_readAttributesRequestSend.o
LOAD c:/NXP/bstudio_nxp/workspace/ZigBee-LightLink-Test-1/Light_ColorTemperatureLight/Build/zcl_readAttributesResponseHandle.o
LOAD c:/NXP/bstudio_nxp/workspace/ZigBee-LightLink-Test-1/Light_ColorTemperatureLight/Build/zcl_readReportingConfigurationCommandHandle.o
LOAD c:/NXP/bstudio_nxp/workspace/ZigBee-LightLink-Test-1/Light_ColorTemperatureLight/Build/zcl_readReportingConfigurationCommandSend.o
LOAD c:/NXP/bstudio_nxp/workspace/ZigBee-LightLink-Test-1/Light_ColorTemperatureLight/Build/zcl_readReportingConfigurationResponseHandle.o
LOAD c:/NXP/bstudio_nxp/workspace/ZigBee-LightLink-Test-1/Light_ColorTemperatureLight/Build/zcl_reportManager.o
LOAD c:/NXP/bstudio_nxp/workspace/ZigBee-LightLink-Test-1/Light_ColorTemperatureLight/Build/zcl_reportMaths.o
LOAD c:/NXP/bstudio_nxp/workspace/ZigBee-LightLink-Test-1/Light_ColorTemperatureLight/Build/zcl_reportScheduler.o
LOAD c:/NXP/bstudio_nxp/workspace/ZigBee-LightLink-Test-1/Light_ColorTemperatureLight/Build/zcl_reportStringHandling.o
LOAD c:/NXP/bstudio_nxp/workspace/ZigBee-LightLink-Test-1/Light_ColorTemperatureLight/Build/zcl_reportStructure.o
LOAD c:/NXP/bstudio_nxp/workspace/ZigBee-LightLink-Test-1/Light_ColorTemperatureLight/Build/zcl_search.o
LOAD c:/NXP/bstudio_nxp/workspace/ZigBee-LightLink-Test-1/Light_ColorTemperatureLight/Build/zcl_timer.o
LOAD c:/NXP/bstudio_nxp/workspace/ZigBee-LightLink-Test-1/Light_ColorTemperatureLight/Build/zcl_transmit.o
LOAD c:/NXP/bstudio_nxp/sdk/JN-SW-4168/Components/Library\libZPSMAC_Mini_JN516x.a
LOAD c:/NXP/bstudio_nxp/sdk/JN-SW-4168/Components/Library\libOS_JN516x.a
LOAD c:/NXP/bstudio_nxp/sdk/JN-SW-4168/Components/Library\libPWRM_JN516x.a
LOAD c:/NXP/bstudio_nxp/sdk/JN-SW-4168/Components/Library\libZPSTSV_JN516x.a
LOAD c:/NXP/bstudio_nxp/sdk/JN-SW-4168/Components/Library\libAES_SW_JN516x.a
LOAD c:/NXP/bstudio_nxp/sdk/JN-SW-4168/Components/Library\libPDUM_JN516x.a
LOAD c:/NXP/bstudio_nxp/sdk/JN-SW-4168/Components/Library\libZPSAPL_JN516x.a
LOAD c:/NXP/bstudio_nxp/sdk/JN-SW-4168/Components/Library\libRandom_JN516x.a
LOAD c:/NXP/bstudio_nxp/sdk/JN-SW-4168/Components/Library\libPDM_EEPROM_JN516x.a
LOAD c:/NXP/bstudio_nxp/sdk/JN-SW-4168/Components/Library\libDBG_JN516x.a
LOAD c:/NXP/bstudio_nxp/sdk/JN-SW-4168/Components/Library\libZPSZLL_JN516x.a
LOAD c:/NXP/bstudio_nxp/sdk/JN-SW-4168/Components/Library\libZPSNWK_JN516x.a
LOAD c:/NXP/bstudio_nxp/sdk/JN-SW-4168/Components/Library\libRecal_JN516x.a
LOAD c:/NXP/bstudio_nxp/sdk/JN-SW-4168/Components/Library\libMiniMac_JN516x.a
LOAD c:/NXP/bstudio_nxp/sdk/JN-SW-4168/Components/Library\libMiniMacShim_JN516x.a
LOAD c:/NXP/bstudio_nxp/sdk/JN-SW-4168/Components/Library\libMMAC_JN516x.a
LOAD c:/NXP/bstudio_nxp/sdk/JN-SW-4168/Components/Library\libAes_JN516x.a
LOAD c:/NXP/bstudio_nxp/sdk/JN-SW-4168/Components/Library\libHardwareApi_JN516x.a
LOAD c:/NXP/bstudio_nxp/sdk/JN-SW-4168/Components/Library\libMicroSpecific_JN516x.a
LOAD c:/NXP/bstudio_nxp/sdk/JN-SW-4168/Components/Library\libBoot_JN516x.a
LOAD c:/nxp/bstudio_nxp/sdk/tools/ba-elf-ba2-r36379/bin/../lib/gcc/ba-elf/4.7.4/../../../../ba-elf/lib/mcpu_jn51xx_sizeopt\libm.a
END GROUP
LOAD c:/nxp/bstudio_nxp/sdk/tools/ba-elf-ba2-r36379/bin/../lib/gcc/ba-elf/4.7.4/../../../../ba-elf/lib/mcpu_jn51xx_sizeopt\libc.a
LOAD c:/nxp/bstudio_nxp/sdk/tools/ba-elf-ba2-r36379/bin/../lib/gcc/ba-elf/4.7.4/mcpu_jn51xx_sizeopt\libgcc.a
LOAD c:/nxp/bstudio_nxp/sdk/tools/ba-elf-ba2-r36379/bin/../lib/gcc/ba-elf/4.7.4/../../../../ba-elf/lib/mcpu_jn51xx_sizeopt\libc.a
                0x0000000000080038                _exception_vsr_table = 0x80038
                0x0000000004000000                pSPIflashFncTable = 0x4000000
                0x0000000000000044                restore_state = 0x44
                0x000000000000004a                bZSPIWaitWIPClear = 0x4a
                0x0000000000000050                u16ZSPIflashRDID = 0x50
                0x0000000000000056                u8SelectFlashChipType = 0x56
                0x000000000000005c                memcpy = 0x5c
                0x0000000000000066                vBootFlashProg = 0x66
                [0x00000000000007d0]                __minimum_heap_size = DEFINED (__minimum_heap_size)?__minimum_heap_size:0xd16
                [0x0000000000001388]                __stack_size = DEFINED (__stack_size)?__stack_size:0x800
                0x0000000000000000                _SwConfig = (DEFINED (g_bSWConf_Debug) | (DEFINED (g_bSWConf_AltDebugPort) << 0x1))

.version        0x000000000007fffc        0x4
                0x000000000007fffc        0x4 LONG 0x7030008

.bir            0x0000000000080000       0x10
                0x0000000000080000                _flash_start = ABSOLUTE (.)
                0x0000000000080000                _flash_beg = ABSOLUTE (.)
                0x0000000000080000        0x4 LONG 0x12345678
                0x0000000000080004        0x4 LONG 0x11223344
                0x0000000000080008        0x4 LONG 0x55667788
                0x000000000008000c        0x1 BYTE 0x8
                0x000000000008000d        0x1 BYTE 0x1
                0x000000000008000e        0x2 SHORT 0x0

.flashheader    0x0000000000080010       0x28
                0x0000000000080010        0x4 LONG 0x0
                0x0000000000080014        0x4 LONG 0x0
                0x0000000000080018        0x4 LONG 0x0
                0x000000000008001c        0x2 SHORT 0x0
                0x000000000008001e        0x2 SHORT 0x0 ABSOLUTE (_SwConfig)
                0x0000000000080020                _enc_start = ABSOLUTE (.)
                0x0000000000080020        0x4 LONG 0x25f4c ABSOLUTE (_image_len)
                0x0000000000080024        0x4 LONG 0xa5598 ABSOLUTE (_flash_data_start)
                0x0000000000080028        0x2 SHORT 0x13 ((ABSOLUTE (_ram_data_start) / 0x4) & 0xffff)
                0x000000000008002a        0x2 SHORT 0x26d ((ABSOLUTE (_ram_data_len) / 0x4) & 0xffff)
                0x000000000008002c        0x2 SHORT 0x280 ((ABSOLUTE (_bss_start) / 0x4) & 0xffff)
                0x000000000008002e        0x2 SHORT 0xf60 ((ABSOLUTE (_bss_len) / 0x4) & 0xffff)
                0x0000000000080030        0x4 LONG 0xa1f38 ABSOLUTE (AppWarmStart)
                0x0000000000080034        0x4 LONG 0xa1f52 ABSOLUTE (AppColdStart)
                0x0000000000000000                _enc_offset = (_enc_start & 0xf)

.ro_mac_address
                0x0000000000080040        0x0
                0x0000000000080040                _FlsMACAddress = ABSOLUTE (.)
 *(.ro_mac_address)
                0x0000000000080040                . = ALIGN (0x10)

.ro_ota_header  0x0000000000080040        0x0
                0x0000000000080040                _FlsOtaHeader = ABSOLUTE (.)
 *(.ro_ota_header)
                0x0000000000080040                . = ALIGN (0x10)

.ro_se_lnkKey   0x0000000000080040        0x0
                0x0000000000080040                _FlsLinkKey = ABSOLUTE (.)
 *(.ro_se_lnkKey)
                0x0000000000080040                . = ALIGN (0x10)

.rodata         0x0000000000080038      0xe44
 *(.rodata*)
 .rodata.str1.1
                0x0000000000080038       0x1f C:\Users\brend\AppData\Local\Temp\ccheh5G2.ltrans0.ltrans.o
 *fill*         0x0000000000080057        0x1 00
 .rodata        0x0000000000080058      0x13c C:\Users\brend\AppData\Local\Temp\ccheh5G2.ltrans0.ltrans.o
                0x0000000000080058                gMAC_u8MaxBuffers
                0x000000000008005c                g_u32ApsFcSaveCountBitShift
                0x0000000000080060                u8MaxZpsConfigEp
                0x0000000000080061                au8EpMapPresent
                0x0000000000080064                s_groupPdmTable
 .rodata.str1.1
                0x0000000000000000       0x1f C:\Users\brend\AppData\Local\Temp\ccheh5G2.ltrans1.ltrans.o
                                          0x8 (size before relaxing)
 .rodata        0x0000000000080194       0x30 C:\Users\brend\AppData\Local\Temp\ccheh5G2.ltrans1.ltrans.o
 .rodata.str1.1
                0x0000000000000000       0x1f C:\Users\brend\AppData\Local\Temp\ccheh5G2.ltrans2.ltrans.o
                                          0x7 (size before relaxing)
 .rodata.str1.1
                0x00000000000801c4       0xb7 C:\Users\brend\AppData\Local\Temp\ccheh5G2.ltrans3.ltrans.o
 .rodata        0x000000000008027b        0x8 C:\Users\brend\AppData\Local\Temp\ccheh5G2.ltrans3.ltrans.o
 .rodata.str1.1
                0x0000000000080283        0x6 C:\Users\brend\AppData\Local\Temp\ccheh5G2.ltrans4.ltrans.o
 .rodata.str1.1
                0x0000000000080289       0x19 C:\Users\brend\AppData\Local\Temp\ccheh5G2.ltrans5.ltrans.o
                                         0x20 (size before relaxing)
 .rodata.str1.1
                0x00000000000802a2       0x11 C:\Users\brend\AppData\Local\Temp\ccheh5G2.ltrans6.ltrans.o
                                         0x20 (size before relaxing)
 *fill*         0x00000000000802b3        0x1 00
 .rodata        0x00000000000802b4       0x18 C:\Users\brend\AppData\Local\Temp\ccheh5G2.ltrans8.ltrans.o
                0x00000000000802b4                au32NwkPdmRecordOffsets
 .rodata        0x00000000000802cc       0x24 C:\Users\brend\AppData\Local\Temp\ccheh5G2.ltrans9.ltrans.o
                0x00000000000802cc                au8FlashWaitStatesHSRCO.148388
                0x00000000000802d4                au8FlashWaitStates32MXO.148387
 .rodata.str1.1
                0x00000000000802f0        0x8 C:\Users\brend\AppData\Local\Temp\ccheh5G2.ltrans10.ltrans.o
                                         0x2c (size before relaxing)
 .rodata.str1.1
                0x0000000000000000        0x8 C:\Users\brend\AppData\Local\Temp\ccheh5G2.ltrans12.ltrans.o
                                          0x6 (size before relaxing)
 .rodata        0x00000000000802f8       0x4c C:\Users\brend\AppData\Local\Temp\ccheh5G2.ltrans12.ltrans.o
                0x00000000000802f8                g_u32NwkFcSaveCountBitShift
 .rodata.str1.1
                0x0000000000080344        0x5 C:\Users\brend\AppData\Local\Temp\ccheh5G2.ltrans14.ltrans.o
 .rodata        0x0000000000080349      0x107 C:\Users\brend\AppData\Local\Temp\ccheh5G2.ltrans14.ltrans.o
                0x0000000000080349                au8ZLLChannelSet
 .rodata.str1.1
                0x0000000000000000        0x3 C:\Users\brend\AppData\Local\Temp\ccheh5G2.ltrans15.ltrans.o
 .rodata.str1.1
                0x0000000000080450        0x4 C:\Users\brend\AppData\Local\Temp\ccheh5G2.ltrans16.ltrans.o
                                          0x8 (size before relaxing)
 .rodata        0x0000000000080454       0x20 C:\Users\brend\AppData\Local\Temp\ccheh5G2.ltrans17.ltrans.o
                0x000000000008045c                au32UartAddrOffset
 .rodata.str1.1
                0x0000000000080474        0x3 C:\Users\brend\AppData\Local\Temp\ccheh5G2.ltrans17.ltrans.o
 .rodata.str1.1
                0x0000000000000000        0x4 C:\Users\brend\AppData\Local\Temp\ccheh5G2.ltrans19.ltrans.o
 .rodata.str1.1
                0x0000000000000000        0x3 C:\Users\brend\AppData\Local\Temp\ccheh5G2.ltrans20.ltrans.o
                                          0xb (size before relaxing)
 .rodata        0x0000000000080477        0x7 C:\Users\brend\AppData\Local\Temp\ccheh5G2.ltrans20.ltrans.o
                0x0000000000080477                u8MacNwkTriesTimeout
 *fill*         0x000000000008047e        0x2 00
 .rodata        0x0000000000080480      0x1fc C:\Users\brend\AppData\Local\Temp\ccheh5G2.ltrans21.ltrans.o
                0x0000000000080480                s_apsStSceTbl.129679
                0x0000000000080494                s_aprIdleStHandleCme.139660
                0x00000000000804a8                s_aprActvStHandleCme.135792
                0x0000000000080500                zps_sJoinSceTbl
                0x000000000008050c                zps_sActvSceTbl
 .rodata.str1.1
                0x000000000008067c        0x5 C:\Users\brend\AppData\Local\Temp\ccheh5G2.ltrans23.ltrans.o
                                         0x13 (size before relaxing)
 .rodata.str1.1
                0x0000000000080681       0x27 C:\Users\brend\AppData\Local\Temp\ccheh5G2.ltrans24.ltrans.o
                                         0x4a (size before relaxing)
 .rodata.str1.1
                0x0000000000000000       0x27 C:\Users\brend\AppData\Local\Temp\ccheh5G2.ltrans25.ltrans.o
                                          0x6 (size before relaxing)
 .rodata        0x00000000000806a8      0x318 C:\Users\brend\AppData\Local\Temp\ccheh5G2.ltrans26.ltrans.o
                0x00000000000808a8                gu32ZCLVersion
                0x00000000000808ac                OS_g_u32Version
                0x00000000000808b0                PDUM_g_u32Version
                0x00000000000808b4                ZPS_g_u32MacVersion
                0x00000000000808b8                ZPS_g_u32TsvVersion
 .rodata.str1.1
                0x00000000000809c0       0x2a C:\Users\brend\AppData\Local\Temp\ccheh5G2.ltrans28.ltrans.o
                                         0x4f (size before relaxing)
 .rodata.str1.1
                0x0000000000000000       0x2a C:\Users\brend\AppData\Local\Temp\ccheh5G2.ltrans29.ltrans.o
                                          0x8 (size before relaxing)
 .rodata        0x00000000000809ea       0x10 C:\Users\brend\AppData\Local\Temp\ccheh5G2.ltrans30.ltrans.o
 .rodata.str1.1
                0x00000000000809fa       0x8e C:\Users\brend\AppData\Local\Temp\ccheh5G2.ltrans31.ltrans.o
 .rodata        0x0000000000080a88      0x3f4 C:\Users\brend\AppData\Local\Temp\ccheh5G2.ltrans31.ltrans.o
                0x0000000000080a88                zps_g_pvApl
                0x0000000000080a8c                au32TimerBaseAddress
                0x0000000000080aa0                pwrm_psWakeupCallbacks

.text           0x0000000000080e80    0x24716
 *(.text*)
 .text          0x0000000000080e80     0x1e40 C:\Users\brend\AppData\Local\Temp\ccheh5G2.ltrans0.ltrans.o
                0x0000000000080e80                vInitialiseApp.3306
                0x0000000000080e80                APP_TIMER_Version_1v0
 .text          0x0000000000082cc0     0x170e C:\Users\brend\AppData\Local\Temp\ccheh5G2.ltrans1.ltrans.o
                0x0000000000082cc0                DBG_iUartGetChar
                0x0000000000082d10                vMMAC_IntHandlerBbc
                0x0000000000082d2a                eBasicTxCompleteHandler
                0x0000000000082d2f                vTxRxTimeout.145871
                0x0000000000082d8c                eSmeAcScBeaconInd.137755
                0x0000000000082de8                eSmeASFlBeaconInd.137590
                0x0000000000082e0a                eSmeUDNTScanDcfm.137040
                0x0000000000082e26                vPermitJoinHandleExpiry.132591
                0x0000000000082e2f                vNwkMcpsTimerCallback
                0x0000000000082e49                zps_eSceGenlIllegal
                0x0000000000082e50                zps_eSmeGenlIllegal
                0x0000000000082e57                DBG_vUartFailedAssert
                0x0000000000082ec6                boSearchForWearCountSubstitute.123061
                0x0000000000082eec                pvHeap_Alloc
                0x0000000000082eee                vMicroIntRestoreState
                0x0000000000082efa                bAHI_WriteEEPROMfixSegmentData
                0x0000000000082f58                bAHI_InitialiseEEPROM
                0x0000000000082fa0                vAHI_ReadDataFromEEPROMregister
                0x0000000000082fcd                vAHI_WriteDataIntoEEPROMregister
                0x0000000000082ffd                iPDM_WriteSegmentHeaderDataIntoEEPROMsegment
                0x000000000008302c                u8AHI_WakeTimerFiredStatus
                0x0000000000083040                vAHI_WakeTimerStop.part.3.148882
                0x0000000000083060                vAHI_UartReset.part.4.148636
                0x0000000000083098                vAHI_ClockXtalPull
                0x00000000000830b5                vAHI_OptimiseWaitStates
                0x0000000000083101                bAHI_GetClkSource
                0x000000000008310e                vAHI_CpuDoze
                0x0000000000083121                vAHI_SwReset
                0x0000000000083152                vAHI_DioSetOutput
                0x0000000000083166                bAHI_APRegulatorEnabled
                0x0000000000083173                bIssueACIcommand
                0x0000000000083209                vACI_CmdWaitBusy
                0x0000000000083216                vEcbEncodeStripe.148008
                0x000000000008326d                vRadioToOff
                0x000000000008328a                psSearchForFrameToSend
                0x00000000000832e1                eMiniMac_FrameInProgress
                0x000000000008330c                vRemoveFromTxQueue
                0x0000000000083348                vAddToTxQueue
                0x000000000008337e                u8GetHeaderSize
                0x00000000000833a6                vMiniMac_PLME_SetReq_CcaMode
                0x00000000000833ba                vMiniMac_MLME_SetReq_MaxCsmaBackoffs
                0x00000000000833da                vMiniMac_MLME_SetReq_MaxBe
                0x00000000000833fd                vMiniMac_MLME_SetReq_MinBe
                0x0000000000083420                zps_psFormatCmdFrameGeneral
                0x00000000000834ad                zps_eNwkFormStInit
                0x00000000000834c2                bCheckMatchingEntry.137750
                0x00000000000834e8                zps_psNwkSlistRemoveFromHead
                0x00000000000834ff                zps_psNwkSlistRemove
                0x0000000000083537                zps_bNwkMcpsMgrRemoveDescrFromLists
                0x0000000000083575                zps_vNwkSlistAddToTail
                0x000000000008358f                zps_vNwkSecClearMatSet
                0x00000000000835b9                ZPS_bNwkSecHaveNetworkKey
                0x00000000000835ed                ZPS_bNwkSecFindMatSet
                0x0000000000083629                zps_eNwkRctMatchNwkAddr
                0x0000000000083693                ZPS_u8NwkCalcNldeReqOverhead
                0x00000000000836ce                zps_vRemoveNextHop
                0x0000000000083783                zps_vRemoveRoute
                0x000000000008381a                zps_psNwkRtMatchNwkAddr
                0x0000000000083890                zps_vNwkFreeMcpsHandle
                0x00000000000838ba                zps_psNwkMcpsMgrFindPendingByNwkDstAddr
                0x00000000000838d0                ZPS_u64NwkNibGetMappedIeeeAddr
                0x00000000000838f2                ZPS_vNwkSecResetDevice
                0x0000000000083937                ZPS_bNwkNibNtActvMatch
                0x00000000000839ef                bCheckNwkAddr
                0x0000000000083a3d                ZPS_vSetExtendedStatus
                0x0000000000083a4f                zps_eNwkRtMatch
                0x0000000000083b68                zps_psApsApsAllocateDcfmRecord
                0x0000000000083bd6                zps_u8CalcLinkCost
                0x0000000000083c12                ZPS_u8NwkNibNtDiscMatch
                0x0000000000083cf6                zps_u64NwkLibFromPayload
                0x0000000000083e93                eSmeAcScBeaconInd.137598
                0x0000000000083f9b                eSmeUDNTBeaconInd.137574
                0x0000000000083fbe                zps_vNwkLibU64ToPayload
                0x0000000000083feb                zps_vInitBeaconPayload
                0x0000000000084067                zps_eNwkDcfmIndPost
                0x000000000008408a                zps_psNwkDcfmIndGetBuf
                0x00000000000840ac                zps_eNwkHandleSmePollDcfm
                0x00000000000840d6                eLeaveDataDcfmRemoteLeave.142337
                0x000000000008411f                zps_vSendJoinInd
                0x000000000008418f                vSendDcfm.138276
                0x00000000000841b3                eSmeEdScScanDcfm.137578
                0x00000000000841fc                eSmeGenlScanDcfm.137582
                0x000000000008425a                eRouteRequestDataDcfm.133763
                0x00000000000842ae                eNldeDataDcfm.131598
                0x00000000000842de                zps_vSendNwkStatusInd
                0x000000000008430f                DBG_vInit
                0x0000000000084351                vPDM_ReadBitmapHeader.123175
                0x0000000000084370                u8PDM_CalculateFileSystemCapacity
                0x000000000008438e                psSLISTsearch
 .text          0x00000000000843ce     0x1717 C:\Users\brend\AppData\Local\Temp\ccheh5G2.ltrans2.ltrans.o
                0x00000000000843ce                APP_ZCL_cbEndpointCallback.5999
                0x00000000000845b8                OS_eEnterCriticalSection
                0x0000000000084680                PDUM_hAPduAllocateAPduInstance
                0x00000000000846f4                zps_eAplZdoSendZdpResponse
                0x000000000008473d                bSendResponse.96751
                0x0000000000084780                PDUM_eAPduFreeAPduInstance
                0x0000000000084803                zps_bAplZdoMatchDescServer.part.0.84934
                0x0000000000084abf                zps_bAplZdoNodeDescServer
                0x0000000000084c2b                zps_bAplZdoSimpleDescServer
                0x0000000000084e8c                zps_bAplZdoPowerDescServer
                0x0000000000084fa9                zps_bAplZdoActiveEpServer
                0x0000000000085092                zps_bAplZdoSystemServerDiscoveryServer
                0x000000000008511b                zps_bAplZdoMgmtLqiServer
                0x0000000000085347                zps_bAplZdoMgmtRtgServer
                0x000000000008548d                PDM_eReadDataFromRecord
                0x000000000008550f                vLoadAplRecord.73101
                0x000000000008553d                vLoadNwkRecord.130376
                0x0000000000085575                ZPS_eTsvStart
                0x00000000000855d0                zps_eAplZdoBdrmRequestSend
                0x000000000008564b                zps_eNwkHandleSceNwkUpdate
                0x000000000008566f                vProcessTimedList.129432
                0x00000000000856b5                zps_vNwkMcpsMgrPostTimed
                0x00000000000856c8                vNwkMcpsSendTimedDfcm
                0x000000000008570c                zps_vAplAfPostTimerEvent
                0x0000000000085788                zps_vExpireOldRoutes
                0x0000000000085811                zps_vNwkJoinStStartResponseTimer
                0x000000000008584b                ZPS_eTsvStop
                0x000000000008589f                zps_vNwkHandleCmePermitJoinReq
                0x0000000000085907                zps_eNwkBtrMatch
                0x0000000000085a04                zps_vAplApsStopPollTimer.part.2.66508
                0x0000000000085a8b                eHandleRemoveBroadcastEndpointsFromGroup.68028
 *fill*         0x0000000000085ae5        0x3 00
 .text          0x0000000000085ae8     0x1244 C:\Users\brend\AppData\Local\Temp\ccheh5G2.ltrans3.ltrans.o
                0x0000000000085b8f                eZCL_SetReceiveEventAddressStructure
                0x0000000000085c0e                dbg_vPrintfImplNoneVerbose
                0x0000000000086095                vfExtendedStatusCallBack
                0x00000000000860a0                vUnclaimedInterrupt.3308
                0x00000000000860b2                vOSError.3310
                0x00000000000860fa                DBG_vDumpStack
                0x000000000008613c                eCLD_ColourControlHandleColourModeChange
                0x000000000008619f                eCLD_ColourControlUpdate
                0x00000000000863c4                eCLD_ColourControlSceneEventHandler.38110
                0x00000000000863f5                eCLD_ScenesRemoveAllScenes
                0x00000000000864a6                eCLD_ScenesUpdate
                0x000000000008676d                eCLD_OnOffGetState
                0x000000000008679c                eCLD_LevelControlUpdate
                0x0000000000086a42                eCLD_LevelControlStopTransition
                0x0000000000086a7f                eCLD_LevelControlSetOnOffState
                0x0000000000086bbc                eCLD_LevelControlClusterIsPresent
                0x0000000000086bd3                eCLD_GroupsSetIdentifying
                0x0000000000086bf6                vCLD_IdentifyTimerClickCallback.16111
                0x0000000000086c7d                eCLD_OnOffSetGlobalSceneControl.constprop.22
                0x0000000000086cb1                APP_vHandleIdentify
 .text          0x0000000000086d2c     0x133e C:\Users\brend\AppData\Local\Temp\ccheh5G2.ltrans4.ltrans.o
                0x0000000000086d75                zps_vAplSaveRecord
                0x0000000000086ea5                zps_bNwkFindAddIeeeAddr
                0x0000000000087023                zps_vJoinInitNtParent
                0x0000000000087179                eCheckAddrConflict.isra.4.128741
                0x000000000008720f                vAplSecRemoveLinkKey.73167
                0x000000000008728c                ZPS_vNwkSaveAllRecords
                0x00000000000872a3                zps_vSaveAllZpsRecords
                0x00000000000872c2                ZPS_vNwkNibSetNwkAddr
                0x00000000000872e0                zps_eNwkHandleSceRejnResponse
                0x000000000008733d                ZPS_vNwkNibSetExtPanId
                0x0000000000087361                ZPS_vNwkNibSetKeySeqNum
                0x0000000000087375                ZPS_vNwkNibSetDepth
                0x000000000008739e                ZPS_vNwkNibSetUpdateId
                0x00000000000873ad                vSendNetworkUpdate.128508
                0x00000000000874dd                ZPS_vNwkNibSetPanId
                0x00000000000874fb                ZPS_vNwkNibSetCapabilityInfo
                0x0000000000087528                ZPS_vNwkNibSetChannel
                0x0000000000087540                zps_u8NwkHandleRejoinReq
                0x0000000000087609                vContinueRejoin.140132
                0x00000000000876b0                zps_vProcessLocalAddrConflict
                0x000000000008775b                zps_vBuildSortedActvNTList
                0x0000000000087819                zps_sNwkNibNtCheckJoin
                0x0000000000087ac2                zps_vNwkHandleCmeDirectJoinReq
                0x0000000000087b41                zps_vCheckActvNtForDuplicate
                0x0000000000087bde                vFinish.141339
                0x0000000000087c34                eSmeOrphScanDcfm.141349
                0x0000000000087cac                zps_eNwkHandleSceLeave
                0x0000000000087e6e                zps_vCleanUnAuthenHandleExpiry
                0x0000000000087f70                eUnsolicitedRejoinRspDataDcfm.128516
                0x0000000000087f9b                eRejoinRspDataDcfm.140136
 .text          0x000000000008806a     0x14d4 C:\Users\brend\AppData\Local\Temp\ccheh5G2.ltrans5.ltrans.o
                0x000000000008806a                zps_eNwkHandleSceLinkStatus
                0x000000000008819e                zps_psFindKeyDescr
                0x00000000000882d2                zps_eAplSecEncryptPacket
                0x00000000000883c1                eUnfragmentedUnicastTransmission.66602
                0x000000000008871b                zps_eAplSendApsmeCmdFrame
                0x000000000008888c                vHandleTransportKeyFrame.69396
                0x0000000000088a6b                vApsmeResendTimeOutHandler
                0x0000000000088a9a                ZPS_bNwkNibAddrMapAddEntry
                0x0000000000088c61                zps_vAgeRouter
                0x0000000000088c9f                zps_eNwkHandleSdeActvDcfmData
                0x0000000000088e29                vMcpsMgrTimeoutExpiry
                0x0000000000088e98                zps_eDefaultDataDcfm
                0x000000000008906d                zps_vLinkStatusHandleExpiry
                0x000000000008910f                zps_eNwkHandleSceRouteRequest
 .text.unlikely
                0x000000000008953e       0x5f C:\Users\brend\AppData\Local\Temp\ccheh5G2.ltrans5.ltrans.o
                0x000000000008953e                vInitUnknownNeighbor.129416
 .text          0x000000000008959d     0x141a C:\Users\brend\AppData\Local\Temp\ccheh5G2.ltrans6.ltrans.o
                0x000000000008959d                vPDM_MoveFileRecordFromListToList
                0x00000000000895c1                vPDM_MoveRecordToDeAllocList
                0x00000000000895e1                vIncrementFrameCounterInPdm.isra.0.130810
                0x00000000000897c0                vProcessListsForSubmission.129520
                0x0000000000089a7a                zps_vNwkMcpsMgrPost
                0x0000000000089a9e                zps_psNwkInitiateRouteDiscovery
                0x0000000000089dd6                zps_psSendFrm
                0x000000000008a0f2                zps_psSendBroadcastFrm
                0x000000000008a188                zps_eNwkHandleSceRouteRecord
                0x000000000008a25c                zps_psNwkSendRejoinReqCmd.constprop.8
                0x000000000008a2cc                zps_psSendNetworkStatusCmd
                0x000000000008a339                vSendNetworkReport.128504
                0x000000000008a413                psSendRouteReplyCmd.133745
                0x000000000008a525                zps_eNwkHandleSceRouteReply
                0x000000000008a864                zps_psNwkPropagateLocalLeave
                0x000000000008a88c                zps_vNwkHandleCmeLeaveReq
                0x000000000008a95a                iPDM_SegmentCopyAndAppendData.constprop.139
 .text          0x000000000008a9b7     0x134c C:\Users\brend\AppData\Local\Temp\ccheh5G2.ltrans7.ltrans.o
                0x000000000008a9b7                DBG_vUartFlush
                0x000000000008a9e4                DBG_vUartPutch
                0x000000000008aa2a                os_u32APP_cbGetTickTimer
                0x000000000008aa33                os_bAPP_cbSetTickTimerCompare
                0x000000000008abe2                vMiniMac_NextTransaction
                0x000000000008ac89                eTransmit
                0x000000000008ad66                vMiniMac_TxComplete
                0x000000000008ae4c                vTimerFired
                0x000000000008af04                eCLD_ScenesSaveClusters.constprop.36
                0x000000000008b193                vDispatch.60777
                0x000000000008b265                OS_eStartSWTimer.constprop.140
                0x000000000008b384                os_vAPP_RadioRecal
                0x000000000008b411                OS_eStopSWTimer
                0x000000000008b534                OS_ePostMessage
                0x000000000008b69a                os_vAPP_DiscoveryTimerTask
                0x000000000008b6e1                os_vAPP_CommissionTimerTask
                0x000000000008b6f7                OS_eExitCriticalSection
                0x000000000008b7dc                OS_eActivateTask
                0x000000000008b877                vPostMlmeDcfmInd.79912
                0x000000000008b91a                PWRM_vWakeInterruptCallback
                0x000000000008b9a1                u16ZCL_ReadTypeNBO
                0x000000000008ba56                u16ZCL_APduInstanceReadNBO
                0x000000000008baa7                u16ZCL_ReadCommandHeader.part.0.45046
                0x000000000008bb1e                eCLD_BasicCommandHandler
                0x000000000008bb4a                vRGBLight_SetLevels
                0x000000000008bb70                u16ZCL_APduInstanceWriteNBO
                0x000000000008bbc4                u16ZCL_WriteCommandHeader
                0x000000000008bc3c                u16ZCL_APduInstanceWriteStringNBO
 .text          0x000000000008bd03      0xff3 C:\Users\brend\AppData\Local\Temp\ccheh5G2.ltrans8.ltrans.o
                0x000000000008bd03                zps_vNwkHandleCmeRouteDiscoveryReq
                0x000000000008bd89                vPDM_MoveAllDataFromListToList
                0x000000000008bdc7                vPDM_MoveAllDataWithBufferIdAndStateFromListToList
                0x000000000008be52                vPDM_MoveAllDataToDeAllocList
                0x000000000008be7a                iPDM_ReconstructReplacedDataTable
                0x000000000008c0f9                vPDM_ImageBitmapRepair.122233
                0x000000000008c15a                vPDM_MoveAllDataWithBufferIdFromListToList
                0x000000000008c1df                vPDM_DeleteAppendedSequence
                0x000000000008c284                PDM_eSaveRecordData
                0x000000000008c6b9                ZPS_vNwkSaveRecord
                0x000000000008c6e5                ZPS_vNwkSaveNt
                0x000000000008c6f8                ZPS_vNwkPurgeMacAddressAndRelatedEntries
                0x000000000008c7fe                ZPS_vNtSetUsedStatus
                0x000000000008c8a5                zps_eNwkHandleSmeCommStatusInd
                0x000000000008c959                ZPS_vNwkSaveSecMat
                0x000000000008c9a9                vPDM_DeleteSegmentsWithIdFromFileSystem
                0x000000000008c9ca                ZPS_vNwkResetOutgoingFrameCounter
                0x000000000008ca0f                ZPS_vNwkHandleNldeReqRsp
                0x000000000008cbef                zps_eAplApsmeCmdMgrSendCommand
                0x000000000008cccc                zps_vAplApsmeCmdMgrRetryTimeout.68001
 .text          0x000000000008ccf6     0x105f C:\Users\brend\AppData\Local\Temp\ccheh5G2.ltrans9.ltrans.o
                0x000000000008ccf6                vZdoServersInit.3037
                0x000000000008ce35                boIdValueSearchMatch.122318
                0x000000000008ce8f                u16ZCL_APduInstanceReadStringNBO
                0x000000000008cf64                eZCL_GetAttributeTypeSizeFromBuffer
                0x000000000008cfdb                iPDM_ReadSegmentHeaderDataFromEEPROMsegment
                0x000000000008d034                iPDM_ReadUserDataFromEEPROMsegment
                0x000000000008d0ae                iPDM_ReCalculateWearCountAndChecksumAndWriteFileSystemHeader
                0x000000000008d0f8                vPDM_SetEEPROMandFileSystemValidState
                0x000000000008d11f                iPDM_ReadUserDataFromFileSystemRecord
                0x000000000008d13f                DriverBulb_vOn
                0x000000000008d15d                DriverBulb_vOff
                0x000000000008d179                vPDM_WriteFileSystemRecordAndSegmentDataIntoEEPROMsegment
                0x000000000008d1b5                iPDM_FilterDuplicateAppendedSegmentsOnList.123490
                0x000000000008d1f9                eCLD_ScenesFindActiveScene
                0x000000000008d22e                ZPS_bIsMacAddressUsedInApsTable
                0x000000000008d2e4                eCLD_GroupsCheckGroupExists
                0x000000000008d351                ZPS_eTsvOpen
                0x000000000008d36b                zps_vNwkBttMgrInit
                0x000000000008d399                ZPS_vNwkNibClearTables
                0x000000000008d4ba                vAHI_ApConfigure.part.0.148082.constprop.138
                0x000000000008d4f0                vMiniMac_MLME_SetReq_PanId
                0x000000000008d52d                vMiniMac_MLME_SetReq_ShortAddr
                0x000000000008d53b                psDLISTsearchFromHead
                0x000000000008d564                eCLD_ScenesAddScene
                0x000000000008d644                eCLD_ScenesFindScene
                0x000000000008d6a0                iAHI_WriteDataIntoEEPROMsegment.constprop.130
                0x000000000008d6ee                vZCL_InitializeClusterInstance.constprop.123
                0x000000000008d6ff                pvZCL_HeapAlloc.part.0.52407.constprop.107
                0x000000000008d738                vMicroIntEnableOnly.constprop.98
                0x000000000008d764                vSetChannelAndPower
                0x000000000008d802                vMiniMac_PLME_SetReq_Power
                0x000000000008d816                vMiniMac_PLME_SetReq_Channel
                0x000000000008d81e                TSV_eStart
                0x000000000008d86e                bAHI_SetClockRate.part.0.148308.constprop.73
                0x000000000008d8e9                vAHI_DioSetDirection.constprop.70
                0x000000000008d8f7                vAHI_TimerEnable.part.1.148417.constprop.65
                0x000000000008d956                vLI_Start.constprop.59
                0x000000000008d9ae                vACI_OptimisedCcmStar.constprop.54
                0x000000000008db99                zps_eNwkRtDiscMatch.constprop.51
                0x000000000008dbec                bACI_ECBencodeBuffer.part.0.147972.constprop.49
                0x000000000008dc4c                vCLD_ColourControl_xyY2CCT.constprop.35
                0x000000000008dcee                vMiniMac_ReturnTxBufferCallback
                0x000000000008dd00                vEnableReceive.145875
                0x000000000008dd3a                vStartReceive
 .text.unlikely
                0x000000000008dd55       0x43 C:\Users\brend\AppData\Local\Temp\ccheh5G2.ltrans9.ltrans.o
                0x000000000008dd55                vAHI_MemoryHold.148316
 .text          0x000000000008dd98     0x1170 C:\Users\brend\AppData\Local\Temp\ccheh5G2.ltrans10.ltrans.o
                0x000000000008dd98                vHandleZllDeviceJoin
                0x000000000008dee5                vPostNldeDcfmInd.64032
                0x000000000008e9d4                iPDM_SelectValidFileRecordInstance.122159
                0x000000000008eac0                vSaveScenesNVM
                0x000000000008eb63                eCLD_GroupsRemoveAllGroups
                0x000000000008ec1d                vRemoveAllGroupsAndScenes
                0x000000000008ec2f                vManagePowerOnCountInit
                0x000000000008ec78                os_vAPP_vManagePowerOnCount
                0x000000000008ecd0                vPickChannel.4571
                0x000000000008ed2d                zps_eAplZdoGroupEndpointRemove
                0x000000000008edc5                zps_eAplApsmeUpdateDeviceReqRsp.part.4.68166
 .text          0x000000000008ef08     0x127c C:\Users\brend\AppData\Local\Temp\ccheh5G2.ltrans11.ltrans.o
                0x000000000008ef08                vMcpsMgrExpiry.129404
                0x000000000008ef67                vMiniMac_MlmeCallback
                0x000000000008f253                vSendMlmeCommStatusFromTxFrame
                0x000000000008f2a9                MAC_vHandleMlmeVsReqRsp.constprop.92
                0x000000000008fad5                vScanBeaconReceived
                0x000000000008fb14                vPostDcfm.146662
                0x000000000008fb7d                vScanNextChannel.146668
                0x000000000008fd87                vRunningRxCallback
                0x00000000000900e0                iPDM_VerifyDataSequenceWithBufferId
 .text          0x0000000000090184     0x110d C:\Users\brend\AppData\Local\Temp\ccheh5G2.ltrans12.ltrans.o
                0x00000000000901ec                zps_vNwkHandleCmeActvStartRouterReq
                0x0000000000090328                vHandleNwkLocalUpdateAfterBcast.128521
                0x000000000009037c                vHandleNwkRemoteUpdateAfterBcast.128512
                0x00000000000903d0                eSmeAcScScanDcfm.138280
                0x000000000009069e                ZPS_pvNwkCtor.constprop.89
                0x0000000000090c21                ZPS_vNwkHandleNlmeReqRsp
                0x0000000000090c9e                zps_vAplAfPostEvent
                0x0000000000090e8b                zps_eAplZdoLeaveNetwork.constprop.60
                0x0000000000090eb6                zps_bAplZdoMgmtLeaveServer
                0x0000000000091036                zps_eAplZdoNlmePermitJoiningWrapper
                0x000000000009105e                zps_bAplZdoPermitJoiningServer
                0x00000000000910f8                vChangeChannelTimerExpiry.97932
                0x000000000009115b                eLeaveReset.142332
                0x00000000000911c6                eLeaveDataDcfmLocalLeave.142342
                0x0000000000091240                zps_eAplZdoZllStartRouter
 .text          0x0000000000091291     0x1029 C:\Users\brend\AppData\Local\Temp\ccheh5G2.ltrans13.ltrans.o
                0x0000000000091291                eCLD_ScenesCommandHandler
 *fill*         0x00000000000922ba        0x2 00
 .text          0x00000000000922bc     0x11d4 C:\Users\brend\AppData\Local\Temp\ccheh5G2.ltrans14.ltrans.o
                0x0000000000092303                os_vAPP_Commission_Task
                0x0000000000093148                os_vAPP_ZPR_Light_Task
 .text          0x0000000000093490     0x12a8 C:\Users\brend\AppData\Local\Temp\ccheh5G2.ltrans15.ltrans.o
                0x0000000000093490                zps_bAplZdoBindRequestServer
                0x00000000000935cb                psGetVsMcpsBuf.79916
                0x00000000000935d4                psGetMlmeBuf.79909
                0x000000000009361b                psGetNlmeBuf.64008
                0x0000000000093625                psGetNldeBuf.64029
                0x000000000009362f                psGetApsmeBuf.64015
                0x0000000000093638                psGetApsdeBuf.64022
                0x0000000000093751                os_bDummyMemberCheck.60787
                0x0000000000093756                os_vDefaultErrorHook.60783
                0x0000000000093759                vLoopbackTimerCallback
                0x0000000000093788                psSLISTremove
                0x0000000000093806                vSLISTaddToTail
                0x0000000000093825                psSLISTgetNext
                0x0000000000093849                u8PDM_CalculateLargestDataRecordStored
                0x000000000009387a                bPDM_ImageBitmapRepairCheck
                0x00000000000938a2                u8PDM_ReadSequenceNumber
                0x00000000000938c5                boSegmentNumberDeleteSearchMatch.122745
                0x00000000000938e0                u8PDM_ReadSegmentDataSize
                0x00000000000938f4                u32PDM_ReadFileSystemHeaderWearCount
                0x000000000009390a                boSearchForWearCountInsertPoint.122314
                0x0000000000093928                vPDM_WriteFileSystemHeaderWearCount
                0x000000000009393a                RND_u32GetRand256
                0x0000000000093957                RND_u32GetRand
                0x000000000009397e                u16CalculateFailedTxCount.97940
                0x00000000000939a8                vZdoIeeeAddrServerSendExtendResponse.part.0.83737
                0x0000000000093a09                vZdoNwkAddrServerSendExtendResponse.part.0.82557
                0x0000000000093a6a                zps_bAplZdoServerHandleConfirmAcks
                0x0000000000093ab4                zps_bPerformLeaveActionDecider
                0x0000000000093ab9                vHandleUpdateDeviceIndication.73074
                0x0000000000093ae3                bDuplicateCheck.69441
                0x0000000000093bf0                eHandleRemoveNonBroadcastEndpointsFromGroup.68069
                0x0000000000093c68                eHandleAddEntryToGroupTable.68032
                0x0000000000093cc4                zps_vAplApsFillAndPostApsAck
                0x0000000000093d2e                zps_u8AplApsFreeMsgHandle
                0x0000000000093d98                vFillDataIndStruct.63875
                0x0000000000093df6                vFillApduErrorEvent.63868
                0x0000000000093e39                bCheckProfile.63863
                0x0000000000093e80                ZPS_bIsGroupPresent
                0x0000000000093eb8                pdum_u16ReadNBO
                0x0000000000094019                PDUM_u16SizeNBO
                0x0000000000094077                PDUM_u16APduInstanceWriteStrNBO
                0x00000000000941f6                PDUM_u16APduInstanceReadNBO
                0x0000000000094241                PDUM_u16APduInstanceWriteNBO
                0x00000000000942ab                PDUM_thAPduInstanceGetApdu
                0x00000000000942c6                PDUM_eAPduInstanceSetPayloadSize
                0x00000000000942ee                PDUM_eNPduWriteDataFromBuffer
                0x0000000000094348                PDUM_eNPduWriteDataToBuffer
                0x00000000000943a6                PDUM_eNPduWriteFromBuffer
                0x00000000000943cf                PDUM_eNPduDescend
                0x00000000000943f5                PDUM_eNPduAscend
                0x000000000009441b                PDUM_eNPduClaimData
                0x0000000000094488                PDUM_eNPduAppendDataNBO
                0x00000000000944e5                PDUM_eNPduClaimHeader
                0x0000000000094508                PDUM_eNPduReadHeaderNBO
                0x000000000009455b                PDUM_eNPduPrependHeaderNBO
                0x00000000000945b6                PDUM_eNPduInitDescending
                0x00000000000945d1                zps_vInitAPSMECmdHdr
                0x0000000000094608                OS_eCollectMessage
                0x00000000000946cd                eExpireSWTimer.60796
 .text.unlikely
                0x0000000000094738       0xd0 C:\Users\brend\AppData\Local\Temp\ccheh5G2.ltrans15.ltrans.o
                0x0000000000094738                bIsBindTableMatch.68009
                0x0000000000094789                eRemoveEntryInBindingTable.68037
 .text          0x0000000000094808      0xe6a C:\Users\brend\AppData\Local\Temp\ccheh5G2.ltrans16.ltrans.o
                0x0000000000094808                eBeaconReqSent.146647
                0x00000000000948dc                zps_bAplZdoNwkAddrServer
                0x0000000000094c07                zps_bAplZdoIeeeAddrServer
                0x0000000000094d5d                eMcpsTxCompleteHandler.145500
                0x0000000000094d8b                vPDM_AddFileSystemElementToListInAscendingWearCountOrder
                0x0000000000094e99                iPDM_WriteSegmentHeaderAndData
                0x0000000000095095                zps_u8AplApsConstructAndPostLoopBackDataInd.66619
                0x00000000000951ce                u8PostUnicastMsgToNHLE.66627
                0x0000000000095207                PWRM_vManagePower
                0x0000000000095344                vTransformKey.isra.0.69560
                0x0000000000095374                vFreePendingReqDescr
                0x00000000000953df                vHandleRouteDiscoveryExpiry.133323
                0x000000000009543d                zps_vSendJoinDcfm
                0x0000000000095484                vGiveUp.140902
                0x00000000000954bc                ZPS_bSecEncrypt
 .text.unlikely
                0x0000000000095672       0xaa C:\Users\brend\AppData\Local\Temp\ccheh5G2.ltrans16.ltrans.o
                0x0000000000095672                eMakeEntryInBindingTable.68055
 .text          0x000000000009571c     0x10a0 C:\Users\brend\AppData\Local\Temp\ccheh5G2.ltrans17.ltrans.o
                0x000000000009571c                os_vAPP_cbDisableTickTimer
                0x0000000000095760                os_vAPP_cbEnableTickTimer
                0x00000000000957e0                vRetryCcaFailure
                0x0000000000095834                eOrphanNotificationSent.146643
                0x000000000009587d                DBG_vUartInitHardware
                0x00000000000959ba                eZCL_SearchForClusterEntry
                0x0000000000095a58                eZCL_FindCluster.constprop.132
                0x0000000000095aa5                eCLD_ColourControl_GetRGB.constprop.57
                0x0000000000095c9a                eZCL_CustomCommandReceiveScenes.isra.0.part.1.23033.constprop.18
                0x0000000000095d8e                vCLD_ScenesUpdateSceneValid
                0x0000000000095e0a                eCLD_OnOffSceneEventHandler.19175
                0x0000000000095e41                eZCL_BuildTransmitAddressStructure
                0x0000000000095eae                eCLD_ScenesCountScenes
                0x0000000000095ec8                ZPS_bSecDecrypt
                0x0000000000095fda                boPDM_IsBitmapSaturated.123210
                0x0000000000096023                eCLD_ScenesStoreScene
                0x00000000000960fb                MAC_u64GetExtAddr
                0x0000000000096116                ZPS_u64NwkNibFindExtAddr
                0x00000000000961c1                eCLD_ScenesSetLastConfiguredBy.isra.2.23049
                0x00000000000961f8                ZPS_u16NwkNibFindNwkAddr
                0x000000000009629e                iPDM_SearchForBufferIdInList
                0x00000000000962d3                iPDM_SearchForBufferIdInFileSystem
                0x00000000000962e6                iPDM_ReadUserDataFromSegmentWithId
                0x000000000009631b                iPDM_SearchForSpecificSegmentInList
                0x000000000009634d                psGetTxFrameBuffer
                0x000000000009638c                psGetAndBuildCoordRealignment
                0x00000000000963e4                eBuildAndSend.146651
                0x0000000000096459                MAC_vPibSetRxOnWhenIdle.constprop.91
                0x0000000000096463                vMiniMac_Init
 *fill*         0x00000000000967bc        0x0 00
 .text          0x00000000000967bc      0xf64 C:\Users\brend\AppData\Local\Temp\ccheh5G2.ltrans18.ltrans.o
                0x0000000000097121                os_vTick_Task
                0x000000000009769d                os_vZCL_Task
 .text          0x0000000000097720      0xfac C:\Users\brend\AppData\Local\Temp\ccheh5G2.ltrans19.ltrans.o
                0x0000000000097720                vAplSecAuthPollTimerExpiry.73051
                0x0000000000097778                vAplSecAuthTimerExpiry.73055
                0x0000000000097848                vHandleApsInterPanDcfmData
                0x0000000000097c76                vPostApsdeDcfmInd.64025
                0x0000000000097e7e                zps_vHandleApsdeDataFragIndNotSupported
                0x0000000000097ee6                vApsInterPanMcpsDataInd
                0x000000000009808d                eDiscoverNetworks.73121
                0x00000000000980e9                zps_eAplZdoDiscoverNetworks
                0x0000000000098112                eStartNetworkDiscovery.73128
                0x000000000009819f                eStartRouter.73138
                0x000000000009826e                vPostApsmeDcfmInd.64018
 .text          0x00000000000986cc     0x1067 C:\Users\brend\AppData\Local\Temp\ccheh5G2.ltrans20.ltrans.o
                0x00000000000986cc                zps_bAplZdoMatchDescServer
                0x00000000000986e1                PDUM_eNPduAllocate
                0x0000000000098750                vMiniMac_McpsCallback
                0x000000000009897c                PDUM_eNPduClone
                0x00000000000989c8                PDUM_eNPduFree
                0x0000000000098a35                vPostVsMcpsDcfmInd.79919
                0x0000000000098b1f                ZPS_vInterceptMcpsDataCallback
                0x0000000000098b81                zps_vNwkMcpsMgrFreeReqDescr
                0x0000000000098bb3                zps_psAllocateAndFormatMacHdr
                0x0000000000098e9c                zps_psNwkInitCmdFrame
                0x0000000000098f1b                eSendLinkStatusDataDcfm.part.1.127469
                0x000000000009904d                zps_vNwkRemoveConflictedBroadcast
                0x000000000009909f                zps_vNwkMcpsMgrTidyBtrReqDescr
                0x00000000000990e3                vNwkBttTimerExpiry.135840
                0x0000000000099201                MAC_vHandleMcpsVsReqRsp
                0x0000000000099524                hZCL_AllocateAPduInstance
                0x0000000000099560                eZCL_TransmitInterPanRequest.constprop.32
                0x00000000000995cb                eCLD_ZllCommissionCommandNetworkJoinRouterRspCommandSend.constprop.27
                0x00000000000995f5                eSendScanResponse.6945.constprop.30
 *fill*         0x0000000000099733        0x1 00
 .text          0x0000000000099734      0xd64 C:\Users\brend\AppData\Local\Temp\ccheh5G2.ltrans21.ltrans.o
                0x0000000000099734                os_vzps_taskZPS
                0x000000000009995d                vBbcIntHandler.145298
                0x0000000000099c15                os_vzps_isrMAC
                0x0000000000099c54                eAssocRespSent.146208
                0x0000000000099c73                zps_vNwkHandleCmeSyncReq
                0x0000000000099cbc                zps_vNwkHandleCmeIdleNwkFormReq
                0x0000000000099d64                zps_vNwkHandleCmeNwkDiscReq
                0x0000000000099dde                zps_vNwkHandleCmeEdScanReq
                0x0000000000099ff3                zps_vNwkHandleCmeNwkJoinReq
                0x000000000009a2b1                zps_vNwkHandleCmeNwkActvJoinReq
                0x000000000009a34d                vSetKeys
                0x000000000009a3d2                vResetDataStructures
 .text          0x000000000009a498      0xe10 C:\Users\brend\AppData\Local\Temp\ccheh5G2.ltrans22.ltrans.o
                0x000000000009a579                eZCL_TransmitDataRequest
                0x000000000009a8e1                eZCL_SendDefaultResponse
                0x000000000009a9e0                eZCL_CustomCommandReceive
                0x000000000009ab4e                eCLD_ColourControlCommandHandler
                0x000000000009aeda                eCLD_OnOffCommandHandler
 .text          0x000000000009b2a8     0x108a C:\Users\brend\AppData\Local\Temp\ccheh5G2.ltrans23.ltrans.o
                0x000000000009b44e                vHandleRejoinExpiry.140898
                0x000000000009b4ac                zps_eRejoinDataDcfm
                0x000000000009b4f0                eSmeAsocAssocDcfm.141509
                0x000000000009b574                eSmeRjPCPollDcfm.141505
                0x000000000009b5b5                eSceRjRsRejoinRsp.141473
                0x000000000009b676                zps_sNwkLibSubmitScan
                0x000000000009b6af                vSdeHandleMcpsDataInd.129500
 .text          0x000000000009c332      0xdc0 C:\Users\brend\AppData\Local\Temp\ccheh5G2.ltrans24.ltrans.o
                0x000000000009c332                ZPS_vAplHandleApsdeReqRsp
                0x000000000009c752                zps_eAplZdpApsdeReqInternal
                0x000000000009c7c1                zps_eAplZdpRequestApsdeReq.constprop.45
                0x000000000009c942                zps_bAplZdoZdoClient
                0x000000000009cdb2                zps_bAplZdoDefaultServer
                0x000000000009d06e                zps_eZdpMgmtLeaveResponse
                0x000000000009d08f                zps_eZdpMgmtPermitJoiningResponse
 *fill*         0x000000000009d0f2        0x2 00
 .text          0x000000000009d0f4      0xed8 C:\Users\brend\AppData\Local\Temp\ccheh5G2.ltrans25.ltrans.o
                0x000000000009d56a                eCLD_ZllCommissionCommandHandler
                0x000000000009d7a1                eCLD_LevelControlCommandHandler
                0x000000000009db38                vZCL_HandleAttributesWriteRequest
 .text          0x000000000009dfcc     0x10f1 C:\Users\brend\AppData\Local\Temp\ccheh5G2.ltrans26.ltrans.o
                0x000000000009dfcc                bCLD_ScenesSearchForScene.23659
                0x000000000009dfff                eCLD_LevelControlSceneEventHandler.17730
                0x000000000009e048                vOverideProfileId.8570
                0x000000000009e082                APP_ZCL_cbGeneralCallback.6002
                0x000000000009e085                os_bStrictCheck.1358
                0x000000000009e3ca                bCLD_GroupsSearchForGroup.15046
                0x000000000009e3ef                vEnterErrorHook.60779
                0x000000000009e416                eZCL_BuildClientTransmitAddressStructure
                0x000000000009e447                eZCL_GetAttributeTypeSize
                0x000000000009e466                vZCL_MarkAttributeInvalid
                0x000000000009e535                eZCL_CheckEPstructureIntegrity.40799
                0x000000000009e71d                u8ZCL_GetAttributeAllignToFourBytesBoundary
                0x000000000009e732                pvZCL_GetAttributePointer
                0x000000000009e7a8                u16ZCL_WriteTypeNBO.part.0.42153
                0x000000000009e81d                u16ZCL_GetStringStructureSize
                0x000000000009e85a                u16ZCL_GetStringAttributeTypeSizeFromBuffer
                0x000000000009e8cb                u16ZCL_GetStringSizeAndBufferFromStructure
                0x000000000009e95a                bZCL_SendCommandResponse
                0x000000000009e976                vZCL_GetInternalMutex
                0x000000000009e99f                eZCL_GetMutex
                0x000000000009e9d7                u8ZCL_GetEPIdFromIndex
                0x000000000009e9f9                vZCL_ReleaseInternalMutex
                0x000000000009ea13                eZCL_SearchForAttributeEntry
                0x000000000009ead3                vCLD_ScenesGenerateIndividualAttributeCallback
                0x000000000009eb2d                eZCL_SearchForEPentry
                0x000000000009eb88                eZCL_SearchForEPentryAndCheckManufacturerId
                0x000000000009ebc6                vZCL_PassEventToUser
                0x000000000009ebf3                eZCL_ReleaseMutex
                0x000000000009ec22                eZCL_Register.part.1.40808
                0x000000000009ec50                boDLISTisEmpty
                0x000000000009ec68                vDLISTaddToTail
                0x000000000009ec96                psDLISTremoveFromHead
                0x000000000009ecbf                psDLISTremove
                0x000000000009ed17                vCLD_ColourControl_CCT2xyY
                0x000000000009edfd                vWriteU64ToPayLoad.25992
                0x000000000009ee2a                vWriteU32ToPayLoad.25988
                0x000000000009ee42                vSetDualPwm.8821
                0x000000000009eee9                vLI_UpdateDriver
                0x000000000009ef50                vLI_InitVar.7413
                0x000000000009ef81                InvShiftRows
                0x000000000009f014                InvSubBytes
                0x000000000009f05a                AddRoundKey
                0x000000000009f09b                getSBoxValue.5352
 *fill*         0x000000000009f0bd        0x3 00
 .text          0x000000000009f0c0      0xb88 C:\Users\brend\AppData\Local\Temp\ccheh5G2.ltrans27.ltrans.o
                0x000000000009f0c0                eZCL_CustomCommandSend.constprop.23
                0x000000000009f322                eCLD_IdentifyCommandHandler
                0x000000000009f776                eCLD_GroupsCommandHandler
 .text          0x000000000009fc48      0xcca C:\Users\brend\AppData\Local\Temp\ccheh5G2.ltrans28.ltrans.o
                0x000000000009fc48                zps_eZdpNodeDescResponse
                0x000000000009fcf0                zps_eZdpSimpleDescResponse
                0x000000000009fdfd                zps_eAplZdpMgmtRtgResponse
                0x000000000009fec4                zps_bAplZdoMgmtNWKUpdateServer
                0x00000000000a0234                zps_eZdpNwkAddrResponse
                0x00000000000a0317                zps_eZdpIeeeAddrResponse
                0x00000000000a03fa                zps_eZdpPowerDescResponse
                0x00000000000a0497                zps_eZdpActiveEpResponse
                0x00000000000a052d                zps_eZdpMatchDescResponse
                0x00000000000a05c3                zps_eZdpSystemServerDiscoveryResponse
                0x00000000000a0632                zps_eAplZdpMgmtLqiResponse
                0x00000000000a07cc                zps_eAplAfBoundDataReqNonBlocking
 *fill*         0x00000000000a0912        0x2 00
 .text          0x00000000000a0914      0xc4c C:\Users\brend\AppData\Local\Temp\ccheh5G2.ltrans29.ltrans.o
                0x00000000000a0914                vStartScanTimerExpiry.97936
                0x00000000000a09ff                zps_eNwkHandleSmeOrphanInd
                0x00000000000a0c89                zps_eNwkHandleSceNwkStatus
                0x00000000000a0fec                zps_eNwkHandleSmeAssocInd
                0x00000000000a100e                zps_eNwkHandleSceRejnRequest
                0x00000000000a108e                zps_eProcessAddrConflict
                0x00000000000a123b                ZPS_vNwkNibCheckAndUpdateAddresses
                0x00000000000a12d2                zps_bAplZdoDeviceAnnceServer
 .text          0x00000000000a1560      0x9d8 C:\Users\brend\AppData\Local\Temp\ccheh5G2.ltrans30.ltrans.o
                0x00000000000a16ca                zps_vAplApsPollTimer
                0x00000000000a172c                vPostNlmeDcfmInd.64011
                0x00000000000a1e3e                vDiscoverNetworks.4574
                0x00000000000a1eaa                vTryNwkJoin.4578
 .text          0x00000000000a1f38      0x527 C:\Users\brend\AppData\Local\Temp\ccheh5G2.ltrans31.ltrans.o
                0x00000000000a1f38                AppWarmStart
                0x00000000000a1f52                AppColdStart
                0x00000000000a2256                os_vUnclaimedInterrupt
                0x00000000000a2268                os_vControlledIntCheck
                0x00000000000a22ad                os_vControlledInterrupt
                0x00000000000a22e6                os_vvISR_SystemController
                0x00000000000a22e9                os_vvISR_Timer4
                0x00000000000a22f8                os_vvISR_Timer3
                0x00000000000a2307                os_vAPP_isrIllegalInstruction
                0x00000000000a231d                os_vAPP_isrAlignmentException
                0x00000000000a2333                os_vAPP_isrBusErrorException
                0x00000000000a2349                os_vAPP_isrUnimplementedModuleException
                0x00000000000a235c                os_vAPP_isrStackOverflowException
                0x00000000000a236f                os_vAPP_isrTickTimer
 .text          0x00000000000a245f       0x25 c:/nxp/bstudio_nxp/sdk/tools/ba-elf-ba2-r36379/bin/../lib/gcc/ba-elf/4.7.4/../../../../ba-elf/lib/mcpu_jn51xx_sizeopt\libc.a(lib_a-memcmp.o)
                0x00000000000a245f                memcmp
 .text          0x00000000000a2484       0x19 c:/nxp/bstudio_nxp/sdk/tools/ba-elf-ba2-r36379/bin/../lib/gcc/ba-elf/4.7.4/../../../../ba-elf/lib/mcpu_jn51xx_sizeopt\libc.a(lib_a-memcpy.o)
 .text          0x00000000000a249d       0x12 c:/nxp/bstudio_nxp/sdk/tools/ba-elf-ba2-r36379/bin/../lib/gcc/ba-elf/4.7.4/../../../../ba-elf/lib/mcpu_jn51xx_sizeopt\libc.a(lib_a-memset.o)
                0x00000000000a249d                memset
 .text          0x00000000000a24af       0x12 c:/nxp/bstudio_nxp/sdk/tools/ba-elf-ba2-r36379/bin/../lib/gcc/ba-elf/4.7.4/../../../../ba-elf/lib/mcpu_jn51xx_sizeopt\libc.a(lib_a-strlen.o)
                0x00000000000a24af                strlen
 .text          0x00000000000a24c1       0x2b c:/nxp/bstudio_nxp/sdk/tools/ba-elf-ba2-r36379/bin/../lib/gcc/ba-elf/4.7.4/../../../../ba-elf/lib/mcpu_jn51xx_sizeopt\libc.a(lib_a-strncpy.o)
                0x00000000000a24c1                strncpy
 *fill*         0x00000000000a24ec        0x0 00
 .text          0x00000000000a24ec      0x204 c:/nxp/bstudio_nxp/sdk/tools/ba-elf-ba2-r36379/bin/../lib/gcc/ba-elf/4.7.4/mcpu_jn51xx_sizeopt\libgcc.a(__udivsi3.o)
                0x00000000000a24ec                __udivsi3
 .text          0x00000000000a26f0       0x30 c:/nxp/bstudio_nxp/sdk/tools/ba-elf-ba2-r36379/bin/../lib/gcc/ba-elf/4.7.4/mcpu_jn51xx_sizeopt\libgcc.a(__divsi3.o)
                0x00000000000a26f0                __divsi3
 .text          0x00000000000a2720      0x1b0 c:/nxp/bstudio_nxp/sdk/tools/ba-elf-ba2-r36379/bin/../lib/gcc/ba-elf/4.7.4/mcpu_jn51xx_sizeopt\libgcc.a(__umodsi3.o)
                0x00000000000a2720                __umodsi3
 .text          0x00000000000a28d0       0x24 c:/nxp/bstudio_nxp/sdk/tools/ba-elf-ba2-r36379/bin/../lib/gcc/ba-elf/4.7.4/mcpu_jn51xx_sizeopt\libgcc.a(__modsi3.o)
                0x00000000000a28d0                __modsi3
 .text          0x00000000000a28f4       0x39 c:/nxp/bstudio_nxp/sdk/tools/ba-elf-ba2-r36379/bin/../lib/gcc/ba-elf/4.7.4/mcpu_jn51xx_sizeopt\libgcc.a(_fixunsdfsi.o)
                0x00000000000a28f4                __fixunsdfsi
 .text          0x00000000000a292d      0x3bd c:/nxp/bstudio_nxp/sdk/tools/ba-elf-ba2-r36379/bin/../lib/gcc/ba-elf/4.7.4/mcpu_jn51xx_sizeopt\libgcc.a(_divdi3.o)
                0x00000000000a292d                __divdi3
 .text          0x00000000000a2cea      0x350 c:/nxp/bstudio_nxp/sdk/tools/ba-elf-ba2-r36379/bin/../lib/gcc/ba-elf/4.7.4/mcpu_jn51xx_sizeopt\libgcc.a(_udivdi3.o)
                0x00000000000a2cea                __udivdi3
 .text          0x00000000000a303a      0x384 c:/nxp/bstudio_nxp/sdk/tools/ba-elf-ba2-r36379/bin/../lib/gcc/ba-elf/4.7.4/mcpu_jn51xx_sizeopt\libgcc.a(addsf3.o)
                0x00000000000a303a                __addsf3
 *fill*         0x00000000000a33be        0x2 00
 .text          0x00000000000a33c0      0x218 c:/nxp/bstudio_nxp/sdk/tools/ba-elf-ba2-r36379/bin/../lib/gcc/ba-elf/4.7.4/mcpu_jn51xx_sizeopt\libgcc.a(divsf3.o)
                0x00000000000a33c0                __divsf3
 .text          0x00000000000a35d8       0xac c:/nxp/bstudio_nxp/sdk/tools/ba-elf-ba2-r36379/bin/../lib/gcc/ba-elf/4.7.4/mcpu_jn51xx_sizeopt\libgcc.a(gesf2.o)
                0x00000000000a35d8                __gesf2
                0x00000000000a35d8                __gtsf2
 .text          0x00000000000a3684       0xac c:/nxp/bstudio_nxp/sdk/tools/ba-elf-ba2-r36379/bin/../lib/gcc/ba-elf/4.7.4/mcpu_jn51xx_sizeopt\libgcc.a(lesf2.o)
                0x00000000000a3684                __ltsf2
                0x00000000000a3684                __lesf2
 .text          0x00000000000a3730      0x24c c:/nxp/bstudio_nxp/sdk/tools/ba-elf-ba2-r36379/bin/../lib/gcc/ba-elf/4.7.4/mcpu_jn51xx_sizeopt\libgcc.a(mulsf3.o)
                0x00000000000a3730                __mulsf3
 .text          0x00000000000a397c      0x3a2 c:/nxp/bstudio_nxp/sdk/tools/ba-elf-ba2-r36379/bin/../lib/gcc/ba-elf/4.7.4/mcpu_jn51xx_sizeopt\libgcc.a(subsf3.o)
                0x00000000000a397c                __subsf3
 .text          0x00000000000a3d1e       0xad c:/nxp/bstudio_nxp/sdk/tools/ba-elf-ba2-r36379/bin/../lib/gcc/ba-elf/4.7.4/mcpu_jn51xx_sizeopt\libgcc.a(floatunsisf.o)
                0x00000000000a3d1e                __floatunsisf
 *fill*         0x00000000000a3dcb        0x1 00
 .text          0x00000000000a3dcc      0x5c8 c:/nxp/bstudio_nxp/sdk/tools/ba-elf-ba2-r36379/bin/../lib/gcc/ba-elf/4.7.4/mcpu_jn51xx_sizeopt\libgcc.a(divdf3.o)
                0x00000000000a3dcc                __divdf3
 .text          0x00000000000a4394       0xca c:/nxp/bstudio_nxp/sdk/tools/ba-elf-ba2-r36379/bin/../lib/gcc/ba-elf/4.7.4/mcpu_jn51xx_sizeopt\libgcc.a(gedf2.o)
                0x00000000000a4394                __gedf2
                0x00000000000a4394                __gtdf2
 *fill*         0x00000000000a445e        0x2 00
 .text          0x00000000000a4460      0x488 c:/nxp/bstudio_nxp/sdk/tools/ba-elf-ba2-r36379/bin/../lib/gcc/ba-elf/4.7.4/mcpu_jn51xx_sizeopt\libgcc.a(muldf3.o)
                0x00000000000a4460                __muldf3
 .text          0x00000000000a48e8      0x693 c:/nxp/bstudio_nxp/sdk/tools/ba-elf-ba2-r36379/bin/../lib/gcc/ba-elf/4.7.4/mcpu_jn51xx_sizeopt\libgcc.a(subdf3.o)
                0x00000000000a48e8                __subdf3
 .text          0x00000000000a4f7b       0x64 c:/nxp/bstudio_nxp/sdk/tools/ba-elf-ba2-r36379/bin/../lib/gcc/ba-elf/4.7.4/mcpu_jn51xx_sizeopt\libgcc.a(fixdfsi.o)
                0x00000000000a4f7b                __fixdfsi
 .text          0x00000000000a4fdf       0x8f c:/nxp/bstudio_nxp/sdk/tools/ba-elf-ba2-r36379/bin/../lib/gcc/ba-elf/4.7.4/mcpu_jn51xx_sizeopt\libgcc.a(extendsfdf2.o)
                0x00000000000a4fdf                __extendsfdf2
 .text          0x00000000000a506e      0x13e c:/nxp/bstudio_nxp/sdk/tools/ba-elf-ba2-r36379/bin/../lib/gcc/ba-elf/4.7.4/mcpu_jn51xx_sizeopt\libgcc.a(truncdfsf2.o)
                0x00000000000a506e                __truncdfsf2
 *fill*         0x00000000000a51ac        0x4 00
 .text          0x00000000000a51b0      0x1d0 c:/NXP/bstudio_nxp/workspace/ZigBee-LightLink-Test-1/Light_ColorTemperatureLight/Build/os_irq.o
                0x00000000000a51b0                os_ExternalException_W
                0x00000000000a51f4                os_PIC_ChannelPriorities
                0x00000000000a5204                os_OSMIUM_HwVectTable
                0x00000000000a5240                os_PIC_SwVectTable
 .text          0x00000000000a5380       0x29 c:/NXP/bstudio_nxp/workspace/ZigBee-LightLink-Test-1/Light_ColorTemperatureLight/Build/os_irq_alignment.o
                0x00000000000a5380                IRQ_Alignment
 .text          0x00000000000a53a9       0x29 c:/NXP/bstudio_nxp/workspace/ZigBee-LightLink-Test-1/Light_ColorTemperatureLight/Build/os_irq_buserror.o
                0x00000000000a53a9                IRQ_BusError
 .text          0x00000000000a53d2       0x29 c:/NXP/bstudio_nxp/workspace/ZigBee-LightLink-Test-1/Light_ColorTemperatureLight/Build/os_irq_illegalinstruction.o
                0x00000000000a53d2                IRQ_IllegalInstruction
 .text          0x00000000000a53fb       0x29 c:/NXP/bstudio_nxp/workspace/ZigBee-LightLink-Test-1/Light_ColorTemperatureLight/Build/os_irq_stackoverflowexception.o
                0x00000000000a53fb                IRQ_StackOverflowException
 .text          0x00000000000a5424       0x29 c:/NXP/bstudio_nxp/workspace/ZigBee-LightLink-Test-1/Light_ColorTemperatureLight/Build/os_irq_unimplementedmodule.o
                0x00000000000a5424                IRQ_UnimplementedModule
 *fill*         0x00000000000a544d        0x3 00
 .text          0x00000000000a5450       0xc0 c:/NXP/bstudio_nxp/sdk/JN-SW-4168/Components/Library\libOS_JN516x.a(os_contirq_JN516x.o)
                0x00000000000a5450                os_ExternalException_R
                0x00000000000a5480                os_CFunc_W
                0x00000000000a54d0                os_UnclaimedException_W
                0x00000000000a54f0                os_UnclaimedInterrupt_W
 .text          0x00000000000a5510       0x48 c:/NXP/bstudio_nxp/sdk/JN-SW-4168/Components/Library\libPWRM_JN516x.a(pwrm_setjmp_JN516x.o)
                0x00000000000a5510                setjmp
                0x00000000000a5534                PWRM_longjmp
 .text          0x00000000000a5558       0x27 c:/NXP/bstudio_nxp/sdk/JN-SW-4168/Components/Library\libHardwareApi_JN516x.a(AHI_Interrupt.o)
                0x00000000000a5558                vAHI_InterruptSetPriority
                0x00000000000a5576                vAHI_InterruptSetActivePriorityLevel
 .text.vMicroSyscall
                0x00000000000a557f       0x17 c:/NXP/bstudio_nxp/sdk/JN-SW-4168/Components/Library\libMicroSpecific_JN516x.a(MicroSyscall_ba.o)
                0x00000000000a557f                vMicroSyscall
 .text          0x00000000000a5596        0x0 c:/NXP/bstudio_nxp/sdk/JN-SW-4168/Components/Library\libOS_JN516x.a(os_version_lc.o)
                0x00000000000a5596                OS_Version_1v2
 .text          0x00000000000a5596        0x0 c:/NXP/bstudio_nxp/sdk/JN-SW-4168/Components/Library\libZPSAPL_JN516x.a(zps_apl_version_lc.o)
                0x00000000000a5596                ZPS_APL_Version_2v0
 .text          0x00000000000a5596        0x0 c:/NXP/bstudio_nxp/sdk/JN-SW-4168/Components/Library\libZPSNWK_JN516x.a(zps_nwk_version_lc.o)
                0x00000000000a5596                ZPS_NWK_Version_2v0
                0x00000000000a5596                _flash_end = ABSOLUTE (.)

.rela.dyn       0x00000000000a5598        0x0
 .rela.text     0x0000000000000000        0x0 c:/NXP/bstudio_nxp/workspace/ZigBee-LightLink-Test-1/Light_ColorTemperatureLight/Build/os_irq.o
 .rela.data     0x0000000000000000        0x0 c:/NXP/bstudio_nxp/workspace/ZigBee-LightLink-Test-1/Light_ColorTemperatureLight/Build/os_irq.o
 .rela.rodata   0x0000000000000000        0x0 c:/NXP/bstudio_nxp/workspace/ZigBee-LightLink-Test-1/Light_ColorTemperatureLight/Build/os_irq.o
                0x000000000400004c                . = ORIGIN (ram)

.data           0x000000000400004c      0x9b4 load address 0x00000000000a5598
                0x000000000400004c                _ram_data_start = ABSOLUTE (.)
 *(.data*)
 .data          0x000000000400004c       0xe8 C:\Users\brend\AppData\Local\Temp\ccheh5G2.ltrans0.ltrans.o
                0x000000000400004c                u8MiniMacConfig_MaxConcurrentAssocResponses
                0x0000000004000050                psShadowRxBuffer
 .data          0x0000000004000134        0x4 C:\Users\brend\AppData\Local\Temp\ccheh5G2.ltrans1.ltrans.o
                0x0000000004000134                u32HeapStart
 .data          0x0000000004000138        0x1 C:\Users\brend\AppData\Local\Temp\ccheh5G2.ltrans3.ltrans.o
 *fill*         0x0000000004000139        0x3 00
 .data          0x000000000400013c      0x164 C:\Users\brend\AppData\Local\Temp\ccheh5G2.ltrans9.ltrans.o
                0x000000000400013c                asCLD_ColourControlCCTlist
                0x0000000004000280                sBulb.8879
 .data          0x00000000040002a0       0x40 C:\Users\brend\AppData\Local\Temp\ccheh5G2.ltrans14.ltrans.o
                0x00000000040002a0                sDeviceTable
                0x00000000040002b8                sZllState
 .data          0x00000000040002e0        0x4 C:\Users\brend\AppData\Local\Temp\ccheh5G2.ltrans16.ltrans.o
                0x00000000040002e0                bCanLoopback.66848
 .data          0x00000000040002e4        0xc C:\Users\brend\AppData\Local\Temp\ccheh5G2.ltrans18.ltrans.o
 .data          0x00000000040002f0        0x6 C:\Users\brend\AppData\Local\Temp\ccheh5G2.ltrans20.ltrans.o
 .data          0x00000000040002f6        0x1 C:\Users\brend\AppData\Local\Temp\ccheh5G2.ltrans21.ltrans.o
 *fill*         0x00000000040002f7        0x1 00
 .data          0x00000000040002f8       0xa4 C:\Users\brend\AppData\Local\Temp\ccheh5G2.ltrans26.ltrans.o
                0x00000000040002f8                s_asapduZCLInstances
                0x0000000004000370                s_asapduZDPInstances
 *fill*         0x000000000400039c        0x4 00
 .data          0x00000000040003a0      0x648 C:\Users\brend\AppData\Local\Temp\ccheh5G2.ltrans31.ltrans.o
                0x00000000040003a0                s_keyPairTableStorage.3129
                0x0000000004000400                os_Mutex_mutexMAC
                0x0000000004000408                os_Mutex_mutexZPS
                0x0000000004000410                s_sApl.3084
                0x0000000004000560                os_Message_APP_msgZpsEvents_ZCL
                0x0000000004000584                os_SWTimer_APP_cntrTickTimer_APP_DiscoveryTimer
                0x00000000040005a0                os_SWTimer_APP_cntrTickTimer_APP_CommissionTimer
                0x00000000040005bc                os_SWTimer_APP_cntrTickTimer_APP_TickTimer
                0x00000000040005d8                os_Message_APP_msgZpsEvents
                0x00000000040005fc                os_Message_APP_msgEvents
                0x0000000004000620                os_Message_APP_msgPOREvents
                0x0000000004000644                os_Message_APP_DiscoveryEvents
                0x0000000004000668                os_Message_APP_CommissionEvents
                0x000000000400068c                os_SWTimer_APP_cntrTickTimer_APP_RadioRecalTimer
                0x00000000040006a8                os_Message_zps_msgMlmeDcfmInd
                0x00000000040006cc                os_Message_zps_msgTimeEvents
                0x00000000040006f0                os_Message_zps_msgMcpsDcfmInd
                0x0000000004000714                os_Message_zps_msgMcpsDcfm
                0x0000000004000738                os_SWTimer_APP_cntrTickTimer_APP_PowerOnCountTimer
                0x0000000004000754                os_Task_ZCL_Task
                0x0000000004000760                os_Task_APP_ButtonsScanTask
                0x000000000400076c                os_Task_APP_DiscoveryTimerTask
                0x0000000004000778                os_Task_APP_CommissionTimerTask
                0x0000000004000784                os_Task_Tick_Task
                0x0000000004000790                os_Task_APP_ZPR_Light_Task
                0x000000000400079c                os_Task_APP_Commission_Task
                0x00000000040007a8                os_Task_zps_taskZPS
                0x00000000040007b4                os_Task_APP_vManagePowerOnCount
                0x00000000040007c0                u8AhiBaudRate.123676
                0x00000000040007c4                sLI_Vars.7440
                0x0000000004000804                s_prbMemberCheck.60903
                0x0000000004000808                s_prvErrorHook.60901
                0x000000000400080c                g_u8ZpsExpiryMaxCount
 .data.s_asAPduPool
                0x00000000040009e8       0x18 c:/NXP/bstudio_nxp/workspace/ZigBee-LightLink-Test-1/Light_ColorTemperatureLight/Build/pdum_apdu.o
                0x00000000040009e8                pdum_apduZDP
                0x00000000040009e8                s_asAPduPool
                0x00000000040009f4                pdum_apduZCL
 *(.data.*)
                0x0000000004000a00                . = ALIGN (0x4)
                0x0000000004000a00                _ram_data_end = ABSOLUTE (.)

.bss            0x0000000004000a00     0x3d80 load address 0x00000000000a5f4c
                0x0000000004000a00                _bss_start = ABSOLUTE (.)
 *(.bss*)
 .bss           0x0000000004000a00     0x10c0 C:\Users\brend\AppData\Local\Temp\ccheh5G2.ltrans0.ltrans.o
                0x0000000004000a00                psNextWake.60974
                0x0000000004000a04                s_bWakeTimerActive.60975
                0x0000000004000a05                s_ePowerMode.60976
                0x0000000004000a06                gu16NumberOfSegments.149242
                0x0000000004000a08                u8MaxNpdu.61184
                0x0000000004000a09                u8Count.61183
                0x0000000004000a0c                s_psNPduPoolEnd.61186
                0x0000000004000a10                s_psNPduPoolStart.61185
                0x0000000004000a14                s_psFreeListHead.61182
                0x0000000004000a18                s_hMutex.61181
                0x0000000004000a1c                s_hMutex.61301
                0x0000000004000a20                s_asAPduPool.61300
                0x0000000004000a24                pfExtendedStatusCallBack.128031
                0x0000000004000a28                sScenesCustomData.4389
                0x0000000004000b6c                psAplDefaultZLLAPSLinkKey
                0x0000000004000b70                s_u32x.121330
                0x0000000004000b74                pfOptionsFilterCallback
                0x0000000004000b78                pfnHandleZllDeviceJoin
                0x0000000004000b7c                s_prExpireFn.150236
                0x0000000004000b80                s_hMutex.150235
                0x0000000004000b84                pvRxStore
                0x0000000004000b88                pvTxStore
                0x0000000004000b8c                g_pvAplHandle
                0x0000000004000b90                s_hMacMutex
                0x0000000004000b94                s_sDcfmIndMgr.150000
                0x0000000004000b9c                prAppMlmeGetBuffer
                0x0000000004000ba0                prAppMlmeCallback
                0x0000000004000ba4                psFreeMsgListHead
                0x0000000004000ba8                psActiveMsgListHead
                0x0000000004000bac                u8MiniMac_RunTimeOptions
                0x0000000004000bb0                sReversedMacAddr.147534
                0x0000000004000bb8                sThisDeviceMacAddr
                0x0000000004000bc0                gZpsSetByProfile.63989
                0x0000000004000bc4                psPDM_Common
                0x0000000004000bc8                s_groupTablePdmStorage.3233
 .bss           0x0000000004001ac0       0x10 C:\Users\brend\AppData\Local\Temp\ccheh5G2.ltrans1.ltrans.o
 .bss           0x0000000004001ad0        0x8 C:\Users\brend\AppData\Local\Temp\ccheh5G2.ltrans2.ltrans.o
                0x0000000004001ad0                s_psCurrentTask.60897
 .bss           0x0000000004001ad8        0xc C:\Users\brend\AppData\Local\Temp\ccheh5G2.ltrans3.ltrans.o
                0x0000000004001ad8                vFlushFn.123620
                0x0000000004001adc                vPutchFn.123615
 .bss           0x0000000004001ae4       0x24 C:\Users\brend\AppData\Local\Temp\ccheh5G2.ltrans4.ltrans.o
                0x0000000004001ae4                apvAplPdmRecordsAddress
                0x0000000004001afc                au16AplPdmRecordsSize
 .bss           0x0000000004001b08        0x8 C:\Users\brend\AppData\Local\Temp\ccheh5G2.ltrans5.ltrans.o
 .bss           0x0000000004001b10        0x1 C:\Users\brend\AppData\Local\Temp\ccheh5G2.ltrans6.ltrans.o
 .bss.initinboot
                0x0000000004001b11        0x1 C:\Users\brend\AppData\Local\Temp\ccheh5G2.ltrans7.ltrans.o
 .bss           0x0000000004001b12        0xc C:\Users\brend\AppData\Local\Temp\ccheh5G2.ltrans8.ltrans.o
                0x0000000004001b12                a16NwkPdmRecordSizes
 *fill*         0x0000000004001b1e        0x2 00
 .bss           0x0000000004001b20       0x48 C:\Users\brend\AppData\Local\Temp\ccheh5G2.ltrans10.ltrans.o
 .bss           0x0000000004001b68        0x8 C:\Users\brend\AppData\Local\Temp\ccheh5G2.ltrans11.ltrans.o
 .bss           0x0000000004001b70      0x1a8 C:\Users\brend\AppData\Local\Temp\ccheh5G2.ltrans14.ltrans.o
                0x0000000004001b70                bScanSlow
                0x0000000004001b74                psNwkDescTbl
                0x0000000004001b78                u8NwkCount
                0x0000000004001b79                u8NwkIdx
                0x0000000004001b7a                u8ChanIdx
                0x0000000004001b7b                state
                0x0000000004001b8b                RoundKey
                0x0000000004001c7c                u32OldFrameCtr
                0x0000000004001c80                sDstAddr
                0x0000000004001c90                eState.7162
                0x0000000004001c94                sPowerOnCounts
 .bss           0x0000000004001d18       0x30 C:\Users\brend\AppData\Local\Temp\ccheh5G2.ltrans15.ltrans.o
 .bss           0x0000000004001d48       0x38 C:\Users\brend\AppData\Local\Temp\ccheh5G2.ltrans16.ltrans.o
 .bss           0x0000000004001d80       0x18 C:\Users\brend\AppData\Local\Temp\ccheh5G2.ltrans17.ltrans.o
                0x0000000004001d80                eMMacModuleType
                0x0000000004001d84                prIntHandler.147901
                0x0000000004001d88                psTimerServerList
 .bss           0x0000000004001d98      0x710 C:\Users\brend\AppData\Local\Temp\ccheh5G2.ltrans18.ltrans.o
                0x0000000004001d98                sLight
                0x0000000004002498                sIdEffect
 .bss           0x00000000040024a8        0x8 C:\Users\brend\AppData\Local\Temp\ccheh5G2.ltrans20.ltrans.o
 .bss           0x00000000040024b0       0xa0 C:\Users\brend\AppData\Local\Temp\ccheh5G2.ltrans21.ltrans.o
                0x00000000040024b0                sMiniMacPhyPib
                0x00000000040024b4                aprTimerCallback
                0x00000000040024d4                au32TimerCounter
                0x00000000040024f4                sMiniMacInternal
                0x0000000004002520                s_psVsMcpsDcfmInd.81218
                0x0000000004002524                s_psMacDcfmInd.81217
                0x0000000004002528                u32DataQueueCount
 .bss           0x0000000004002550        0x8 C:\Users\brend\AppData\Local\Temp\ccheh5G2.ltrans22.ltrans.o
                0x0000000004002550                pfOverrideProfile
                0x0000000004002554                bFlag_SaveScenesNVM
 .bss           0x0000000004002558       0x28 C:\Users\brend\AppData\Local\Temp\ccheh5G2.ltrans23.ltrans.o
                0x0000000004002558                bCheckChild
 .bss           0x0000000004002580        0x8 C:\Users\brend\AppData\Local\Temp\ccheh5G2.ltrans24.ltrans.o
                0x0000000004002580                s_u16ActivityCounter
 .bss           0x0000000004002588      0x454 C:\Users\brend\AppData\Local\Temp\ccheh5G2.ltrans26.ltrans.o
 .bss           0x00000000040029dc        0x8 C:\Users\brend\AppData\Local\Temp\ccheh5G2.ltrans27.ltrans.o
                0x00000000040029dc                psZCL_Common
                0x00000000040029e0                zps_psNwk
 .bss           0x00000000040029e4       0xa0 C:\Users\brend\AppData\Local\Temp\ccheh5G2.ltrans28.ltrans.o
                0x00000000040029e4                sMiniMacPib
                0x0000000004002a80                bDefaultServerIgnoreHandleMgmtUpdate
 *fill*         0x0000000004002a84        0xc 00
 .bss           0x0000000004002a90     0x1cb0 C:\Users\brend\AppData\Local\Temp\ccheh5G2.ltrans31.ltrans.o
                0x0000000004002a90                s_sDefaultServerContext.3143
                0x0000000004002a94                s_sMgmtRtgServerContext.3081
                0x0000000004002a98                s_sPermitJoiningServerContext.3082
                0x0000000004002a9c                s_sMgmtNWKUpdateServerContext.3083
                0x0000000004002adc                s_sMgmtLeaveServerContext.3142
                0x0000000004002b04                s_sMgmtLqiServerContext.3141
                0x0000000004002b08                s_sSimpleDescServerContext.3140
                0x0000000004002b0c                s_sMatchDescServerContext.3139
                0x0000000004002b10                s_sPowerDescServerContext.3138
                0x0000000004002b14                s_sNodeDescServerContext.3137
                0x0000000004002b18                s_sSystemServerDiscoveryServerContext.3136
                0x0000000004002b1c                s_sIeeeAddrServerContext.3135
                0x0000000004002b20                s_sNwkAddrServerContext.3134
                0x0000000004002b24                s_sActiveEpServerContext.3133
                0x0000000004002b28                s_sZdoClientContext.3131
                0x0000000004002b28                s_sDeviceAnnceServerContext.3132
                0x0000000004002b30                s_u32LastExpiredTime.3276
                0x0000000004002b34                s_u32CompareTime.3275
                0x0000000004002b38                s_prvCurrentISR.60904
                0x0000000004002b3c                u8AhiUart.123675
                0x0000000004002b3d                bIntEnableFlag.148141
                0x0000000004002b3e                au16TimerSettings.148551
                0x0000000004002b48                s_u32CurrentPriorityMask.60896
                0x0000000004002b4c                s_u8OSLevelIPL.60900
                0x0000000004002b50                s_asTasks.60899
                0x0000000004002b54                s_u32PendingQueue.60898
                0x0000000004002b58                pwrm_CPUContext
 .bss.dontinitinboot
                0x0000000004004740       0x40 c:/NXP/bstudio_nxp/sdk/JN-SW-4168/Components/Library\libBoot_JN516x.a(ExceptionHandler.o)
                0x0000000004004740                isr_handlers
 *(.bss.*)
 *(.scommon*)
 *(.scommon.*)
 *(COMMON)
                0x0000000004004780                . = ALIGN (0x4)
                0x0000000004004780                _bss_end = ABSOLUTE (.)

.heap           0x0000000004004780      0x7d0 load address 0x00000000000a9ccc
                0x0000000004004780                _heap_start = ABSOLUTE (.)
                0x0000000004004f50                . = (. + __minimum_heap_size)
 *fill*         0x0000000004004780      0x7d0 00

.stack          0x0000000004006c78     0x1388 load address 0x00000000000ac1c4
                0x0000000004006c78                _heap_end = ABSOLUTE (.)
                0x0000000004006c78                _stack_low_water_mark = ABSOLUTE (.)
                0x0000000004008000                . = (. + __stack_size)
 *fill*         0x0000000004006c78     0x1388 00

.test           0x00000000000a5f4c        0x1
                0x00000000000a5f4c        0x1 BYTE 0xff
                0x00000000000a5598                _flash_data_start = LOADADDR (.data)
                0x00000000000009b4                _ram_data_len = (((_ram_data_end - _ram_data_start) + 0x3) & 0xfffffffffffffffc)
                0x0000000000003d80                _bss_len = (((_bss_end - _bss_start) + 0x3) & 0xfffffffffffffffc)
                0x0000000000025f4c                _image_len = ((((_flash_end - _flash_start) + _ram_data_len) + 0x3) & 0xfffffffffffffffc)
                0x0000000004008000                _ram_top = (ABSOLUTE (ORIGIN (ram)) + 0x7fb4)
                0x0000000004008000                ram_top = (ABSOLUTE (ORIGIN (ram)) + 0x7fb4)
                0x0000000001001580                _app_ram_start = 0x1001580
                0x0000000004000134                PROVIDE (_heap_location, u32HeapStart)
                0x0000000004000134                PROVIDE (heap_location, u32HeapStart)
OUTPUT(c:/NXP/bstudio_nxp/workspace/ZigBee-LightLink-Test-1/Light_ColorTemperatureLight/Build/Light_ColorTemperatureLight_JN5168_DR1221_Dimic_LINEAR.elf elf32-ba)

.comment        0x0000000000000000       0x11
 .comment       0x0000000000000000       0x12 C:\Users\brend\AppData\Local\Temp\ccheh5G2.ltrans0.ltrans.o
 .comment       0x0000000000000000       0x12 C:\Users\brend\AppData\Local\Temp\ccheh5G2.ltrans1.ltrans.o
 .comment       0x0000000000000000       0x12 C:\Users\brend\AppData\Local\Temp\ccheh5G2.ltrans2.ltrans.o
 .comment       0x0000000000000000       0x12 C:\Users\brend\AppData\Local\Temp\ccheh5G2.ltrans3.ltrans.o
 .comment       0x0000000000000000       0x12 C:\Users\brend\AppData\Local\Temp\ccheh5G2.ltrans4.ltrans.o
 .comment       0x0000000000000000       0x12 C:\Users\brend\AppData\Local\Temp\ccheh5G2.ltrans5.ltrans.o
 .comment       0x0000000000000000       0x12 C:\Users\brend\AppData\Local\Temp\ccheh5G2.ltrans6.ltrans.o
 .comment       0x0000000000000000       0x12 C:\Users\brend\AppData\Local\Temp\ccheh5G2.ltrans7.ltrans.o
 .comment       0x0000000000000000       0x12 C:\Users\brend\AppData\Local\Temp\ccheh5G2.ltrans8.ltrans.o
 .comment       0x0000000000000000       0x12 C:\Users\brend\AppData\Local\Temp\ccheh5G2.ltrans9.ltrans.o
 .comment       0x0000000000000000       0x12 C:\Users\brend\AppData\Local\Temp\ccheh5G2.ltrans10.ltrans.o
 .comment       0x0000000000000000       0x12 C:\Users\brend\AppData\Local\Temp\ccheh5G2.ltrans11.ltrans.o
 .comment       0x0000000000000000       0x12 C:\Users\brend\AppData\Local\Temp\ccheh5G2.ltrans12.ltrans.o
 .comment       0x0000000000000000       0x12 C:\Users\brend\AppData\Local\Temp\ccheh5G2.ltrans13.ltrans.o
 .comment       0x0000000000000000       0x12 C:\Users\brend\AppData\Local\Temp\ccheh5G2.ltrans14.ltrans.o
 .comment       0x0000000000000000       0x12 C:\Users\brend\AppData\Local\Temp\ccheh5G2.ltrans15.ltrans.o
 .comment       0x0000000000000000       0x12 C:\Users\brend\AppData\Local\Temp\ccheh5G2.ltrans16.ltrans.o
 .comment       0x0000000000000000       0x12 C:\Users\brend\AppData\Local\Temp\ccheh5G2.ltrans17.ltrans.o
 .comment       0x0000000000000000       0x12 C:\Users\brend\AppData\Local\Temp\ccheh5G2.ltrans18.ltrans.o
 .comment       0x0000000000000000       0x12 C:\Users\brend\AppData\Local\Temp\ccheh5G2.ltrans19.ltrans.o
 .comment       0x0000000000000000       0x12 C:\Users\brend\AppData\Local\Temp\ccheh5G2.ltrans20.ltrans.o
 .comment       0x0000000000000000       0x12 C:\Users\brend\AppData\Local\Temp\ccheh5G2.ltrans21.ltrans.o
 .comment       0x0000000000000000       0x12 C:\Users\brend\AppData\Local\Temp\ccheh5G2.ltrans22.ltrans.o
 .comment       0x0000000000000000       0x12 C:\Users\brend\AppData\Local\Temp\ccheh5G2.ltrans23.ltrans.o
 .comment       0x0000000000000000       0x12 C:\Users\brend\AppData\Local\Temp\ccheh5G2.ltrans24.ltrans.o
 .comment       0x0000000000000000       0x12 C:\Users\brend\AppData\Local\Temp\ccheh5G2.ltrans25.ltrans.o
 .comment       0x0000000000000000       0x12 C:\Users\brend\AppData\Local\Temp\ccheh5G2.ltrans26.ltrans.o
 .comment       0x0000000000000000       0x12 C:\Users\brend\AppData\Local\Temp\ccheh5G2.ltrans27.ltrans.o
 .comment       0x0000000000000000       0x12 C:\Users\brend\AppData\Local\Temp\ccheh5G2.ltrans28.ltrans.o
 .comment       0x0000000000000000       0x12 C:\Users\brend\AppData\Local\Temp\ccheh5G2.ltrans29.ltrans.o
 .comment       0x0000000000000000       0x12 C:\Users\brend\AppData\Local\Temp\ccheh5G2.ltrans30.ltrans.o
 .comment       0x0000000000000000       0x12 C:\Users\brend\AppData\Local\Temp\ccheh5G2.ltrans31.ltrans.o
 .comment       0x0000000000000000       0x12 c:/nxp/bstudio_nxp/sdk/tools/ba-elf-ba2-r36379/bin/../lib/gcc/ba-elf/4.7.4/../../../../ba-elf/lib/mcpu_jn51xx_sizeopt\libc.a(lib_a-memcmp.o)
 .comment       0x0000000000000000       0x12 c:/nxp/bstudio_nxp/sdk/tools/ba-elf-ba2-r36379/bin/../lib/gcc/ba-elf/4.7.4/../../../../ba-elf/lib/mcpu_jn51xx_sizeopt\libc.a(lib_a-memcpy.o)
 .comment       0x0000000000000000       0x12 c:/nxp/bstudio_nxp/sdk/tools/ba-elf-ba2-r36379/bin/../lib/gcc/ba-elf/4.7.4/../../../../ba-elf/lib/mcpu_jn51xx_sizeopt\libc.a(lib_a-memset.o)
 .comment       0x0000000000000000       0x12 c:/nxp/bstudio_nxp/sdk/tools/ba-elf-ba2-r36379/bin/../lib/gcc/ba-elf/4.7.4/../../../../ba-elf/lib/mcpu_jn51xx_sizeopt\libc.a(lib_a-strlen.o)
 .comment       0x0000000000000000       0x12 c:/nxp/bstudio_nxp/sdk/tools/ba-elf-ba2-r36379/bin/../lib/gcc/ba-elf/4.7.4/../../../../ba-elf/lib/mcpu_jn51xx_sizeopt\libc.a(lib_a-strncpy.o)
 .comment       0x0000000000000000       0x12 c:/nxp/bstudio_nxp/sdk/tools/ba-elf-ba2-r36379/bin/../lib/gcc/ba-elf/4.7.4/mcpu_jn51xx_sizeopt\libgcc.a(_fixunsdfsi.o)
 .comment       0x0000000000000000       0x12 c:/nxp/bstudio_nxp/sdk/tools/ba-elf-ba2-r36379/bin/../lib/gcc/ba-elf/4.7.4/mcpu_jn51xx_sizeopt\libgcc.a(_divdi3.o)
 .comment       0x0000000000000000       0x12 c:/nxp/bstudio_nxp/sdk/tools/ba-elf-ba2-r36379/bin/../lib/gcc/ba-elf/4.7.4/mcpu_jn51xx_sizeopt\libgcc.a(_udivdi3.o)
 .comment       0x0000000000000000       0x12 c:/nxp/bstudio_nxp/sdk/tools/ba-elf-ba2-r36379/bin/../lib/gcc/ba-elf/4.7.4/mcpu_jn51xx_sizeopt\libgcc.a(addsf3.o)
 .comment       0x0000000000000000       0x12 c:/nxp/bstudio_nxp/sdk/tools/ba-elf-ba2-r36379/bin/../lib/gcc/ba-elf/4.7.4/mcpu_jn51xx_sizeopt\libgcc.a(divsf3.o)
 .comment       0x0000000000000000       0x12 c:/nxp/bstudio_nxp/sdk/tools/ba-elf-ba2-r36379/bin/../lib/gcc/ba-elf/4.7.4/mcpu_jn51xx_sizeopt\libgcc.a(gesf2.o)
 .comment       0x0000000000000000       0x12 c:/nxp/bstudio_nxp/sdk/tools/ba-elf-ba2-r36379/bin/../lib/gcc/ba-elf/4.7.4/mcpu_jn51xx_sizeopt\libgcc.a(lesf2.o)
 .comment       0x0000000000000000       0x12 c:/nxp/bstudio_nxp/sdk/tools/ba-elf-ba2-r36379/bin/../lib/gcc/ba-elf/4.7.4/mcpu_jn51xx_sizeopt\libgcc.a(mulsf3.o)
 .comment       0x0000000000000000       0x12 c:/nxp/bstudio_nxp/sdk/tools/ba-elf-ba2-r36379/bin/../lib/gcc/ba-elf/4.7.4/mcpu_jn51xx_sizeopt\libgcc.a(subsf3.o)
 .comment       0x0000000000000000       0x12 c:/nxp/bstudio_nxp/sdk/tools/ba-elf-ba2-r36379/bin/../lib/gcc/ba-elf/4.7.4/mcpu_jn51xx_sizeopt\libgcc.a(floatunsisf.o)
 .comment       0x0000000000000000       0x12 c:/nxp/bstudio_nxp/sdk/tools/ba-elf-ba2-r36379/bin/../lib/gcc/ba-elf/4.7.4/mcpu_jn51xx_sizeopt\libgcc.a(divdf3.o)
 .comment       0x0000000000000000       0x12 c:/nxp/bstudio_nxp/sdk/tools/ba-elf-ba2-r36379/bin/../lib/gcc/ba-elf/4.7.4/mcpu_jn51xx_sizeopt\libgcc.a(gedf2.o)
 .comment       0x0000000000000000       0x12 c:/nxp/bstudio_nxp/sdk/tools/ba-elf-ba2-r36379/bin/../lib/gcc/ba-elf/4.7.4/mcpu_jn51xx_sizeopt\libgcc.a(muldf3.o)
 .comment       0x0000000000000000       0x12 c:/nxp/bstudio_nxp/sdk/tools/ba-elf-ba2-r36379/bin/../lib/gcc/ba-elf/4.7.4/mcpu_jn51xx_sizeopt\libgcc.a(subdf3.o)
 .comment       0x0000000000000000       0x12 c:/nxp/bstudio_nxp/sdk/tools/ba-elf-ba2-r36379/bin/../lib/gcc/ba-elf/4.7.4/mcpu_jn51xx_sizeopt\libgcc.a(fixdfsi.o)
 .comment       0x0000000000000000       0x12 c:/nxp/bstudio_nxp/sdk/tools/ba-elf-ba2-r36379/bin/../lib/gcc/ba-elf/4.7.4/mcpu_jn51xx_sizeopt\libgcc.a(extendsfdf2.o)
 .comment       0x0000000000000000       0x12 c:/nxp/bstudio_nxp/sdk/tools/ba-elf-ba2-r36379/bin/../lib/gcc/ba-elf/4.7.4/mcpu_jn51xx_sizeopt\libgcc.a(truncdfsf2.o)
 .comment       0x0000000000000000       0x11 c:/NXP/bstudio_nxp/sdk/JN-SW-4168/Components/Library\libMicroSpecific_JN516x.a(MicroSyscall_ba.o)
                                         0x12 (size before relaxing)

.debug_info     0x0000000000000000     0x3f05
 .debug_info    0x0000000000000000       0xf3 c:/nxp/bstudio_nxp/sdk/tools/ba-elf-ba2-r36379/bin/../lib/gcc/ba-elf/4.7.4/../../../../ba-elf/lib/mcpu_jn51xx_sizeopt\libc.a(lib_a-memcmp.o)
 .debug_info    0x00000000000000f3      0x106 c:/nxp/bstudio_nxp/sdk/tools/ba-elf-ba2-r36379/bin/../lib/gcc/ba-elf/4.7.4/../../../../ba-elf/lib/mcpu_jn51xx_sizeopt\libc.a(lib_a-memcpy.o)
 .debug_info    0x00000000000001f9       0xd7 c:/nxp/bstudio_nxp/sdk/tools/ba-elf-ba2-r36379/bin/../lib/gcc/ba-elf/4.7.4/../../../../ba-elf/lib/mcpu_jn51xx_sizeopt\libc.a(lib_a-memset.o)
 .debug_info    0x00000000000002d0       0xc8 c:/nxp/bstudio_nxp/sdk/tools/ba-elf-ba2-r36379/bin/../lib/gcc/ba-elf/4.7.4/../../../../ba-elf/lib/mcpu_jn51xx_sizeopt\libc.a(lib_a-strlen.o)
 .debug_info    0x0000000000000398       0xf9 c:/nxp/bstudio_nxp/sdk/tools/ba-elf-ba2-r36379/bin/../lib/gcc/ba-elf/4.7.4/../../../../ba-elf/lib/mcpu_jn51xx_sizeopt\libc.a(lib_a-strncpy.o)
 .debug_info    0x0000000000000491       0xb4 c:/nxp/bstudio_nxp/sdk/tools/ba-elf-ba2-r36379/bin/../lib/gcc/ba-elf/4.7.4/mcpu_jn51xx_sizeopt\libgcc.a(__udivsi3.o)
 .debug_info    0x0000000000000545       0xb4 c:/nxp/bstudio_nxp/sdk/tools/ba-elf-ba2-r36379/bin/../lib/gcc/ba-elf/4.7.4/mcpu_jn51xx_sizeopt\libgcc.a(__divsi3.o)
 .debug_info    0x00000000000005f9       0xb4 c:/nxp/bstudio_nxp/sdk/tools/ba-elf-ba2-r36379/bin/../lib/gcc/ba-elf/4.7.4/mcpu_jn51xx_sizeopt\libgcc.a(__umodsi3.o)
 .debug_info    0x00000000000006ad       0xb4 c:/nxp/bstudio_nxp/sdk/tools/ba-elf-ba2-r36379/bin/../lib/gcc/ba-elf/4.7.4/mcpu_jn51xx_sizeopt\libgcc.a(__modsi3.o)
 .debug_info    0x0000000000000761       0xd3 c:/nxp/bstudio_nxp/sdk/tools/ba-elf-ba2-r36379/bin/../lib/gcc/ba-elf/4.7.4/mcpu_jn51xx_sizeopt\libgcc.a(_fixunsdfsi.o)
 .debug_info    0x0000000000000834      0x68a c:/nxp/bstudio_nxp/sdk/tools/ba-elf-ba2-r36379/bin/../lib/gcc/ba-elf/4.7.4/mcpu_jn51xx_sizeopt\libgcc.a(_divdi3.o)
 .debug_info    0x0000000000000ebe      0x648 c:/nxp/bstudio_nxp/sdk/tools/ba-elf-ba2-r36379/bin/../lib/gcc/ba-elf/4.7.4/mcpu_jn51xx_sizeopt\libgcc.a(_udivdi3.o)
 .debug_info    0x0000000000001506      0x2b5 c:/nxp/bstudio_nxp/sdk/tools/ba-elf-ba2-r36379/bin/../lib/gcc/ba-elf/4.7.4/mcpu_jn51xx_sizeopt\libgcc.a(addsf3.o)
 .debug_info    0x00000000000017bb      0x2b1 c:/nxp/bstudio_nxp/sdk/tools/ba-elf-ba2-r36379/bin/../lib/gcc/ba-elf/4.7.4/mcpu_jn51xx_sizeopt\libgcc.a(divsf3.o)
 .debug_info    0x0000000000001a6c      0x1e9 c:/nxp/bstudio_nxp/sdk/tools/ba-elf-ba2-r36379/bin/../lib/gcc/ba-elf/4.7.4/mcpu_jn51xx_sizeopt\libgcc.a(gesf2.o)
 .debug_info    0x0000000000001c55      0x1ec c:/nxp/bstudio_nxp/sdk/tools/ba-elf-ba2-r36379/bin/../lib/gcc/ba-elf/4.7.4/mcpu_jn51xx_sizeopt\libgcc.a(lesf2.o)
 .debug_info    0x0000000000001e41      0x302 c:/nxp/bstudio_nxp/sdk/tools/ba-elf-ba2-r36379/bin/../lib/gcc/ba-elf/4.7.4/mcpu_jn51xx_sizeopt\libgcc.a(mulsf3.o)
 .debug_info    0x0000000000002143      0x2b5 c:/nxp/bstudio_nxp/sdk/tools/ba-elf-ba2-r36379/bin/../lib/gcc/ba-elf/4.7.4/mcpu_jn51xx_sizeopt\libgcc.a(subsf3.o)
 .debug_info    0x00000000000023f8      0x1af c:/nxp/bstudio_nxp/sdk/tools/ba-elf-ba2-r36379/bin/../lib/gcc/ba-elf/4.7.4/mcpu_jn51xx_sizeopt\libgcc.a(floatunsisf.o)
 .debug_info    0x00000000000025a7      0x5c5 c:/nxp/bstudio_nxp/sdk/tools/ba-elf-ba2-r36379/bin/../lib/gcc/ba-elf/4.7.4/mcpu_jn51xx_sizeopt\libgcc.a(divdf3.o)
 .debug_info    0x0000000000002b6c      0x20b c:/nxp/bstudio_nxp/sdk/tools/ba-elf-ba2-r36379/bin/../lib/gcc/ba-elf/4.7.4/mcpu_jn51xx_sizeopt\libgcc.a(gedf2.o)
 .debug_info    0x0000000000002d77      0x5c7 c:/nxp/bstudio_nxp/sdk/tools/ba-elf-ba2-r36379/bin/../lib/gcc/ba-elf/4.7.4/mcpu_jn51xx_sizeopt\libgcc.a(muldf3.o)
 .debug_info    0x000000000000333e      0x4b2 c:/nxp/bstudio_nxp/sdk/tools/ba-elf-ba2-r36379/bin/../lib/gcc/ba-elf/4.7.4/mcpu_jn51xx_sizeopt\libgcc.a(subdf3.o)
 .debug_info    0x00000000000037f0      0x1b7 c:/nxp/bstudio_nxp/sdk/tools/ba-elf-ba2-r36379/bin/../lib/gcc/ba-elf/4.7.4/mcpu_jn51xx_sizeopt\libgcc.a(fixdfsi.o)
 .debug_info    0x00000000000039a7      0x262 c:/nxp/bstudio_nxp/sdk/tools/ba-elf-ba2-r36379/bin/../lib/gcc/ba-elf/4.7.4/mcpu_jn51xx_sizeopt\libgcc.a(extendsfdf2.o)
 .debug_info    0x0000000000003c09      0x246 c:/nxp/bstudio_nxp/sdk/tools/ba-elf-ba2-r36379/bin/../lib/gcc/ba-elf/4.7.4/mcpu_jn51xx_sizeopt\libgcc.a(truncdfsf2.o)
 .debug_info    0x0000000000003e4f       0xb6 c:/NXP/bstudio_nxp/sdk/JN-SW-4168/Components/Library\libBoot_JN516x.a(ExceptionHandler.o)

.debug_abbrev   0x0000000000000000     0x16c9
 .debug_abbrev  0x0000000000000000       0x8e c:/nxp/bstudio_nxp/sdk/tools/ba-elf-ba2-r36379/bin/../lib/gcc/ba-elf/4.7.4/../../../../ba-elf/lib/mcpu_jn51xx_sizeopt\libc.a(lib_a-memcmp.o)
 .debug_abbrev  0x000000000000008e       0xa4 c:/nxp/bstudio_nxp/sdk/tools/ba-elf-ba2-r36379/bin/../lib/gcc/ba-elf/4.7.4/../../../../ba-elf/lib/mcpu_jn51xx_sizeopt\libc.a(lib_a-memcpy.o)
 .debug_abbrev  0x0000000000000132       0x8e c:/nxp/bstudio_nxp/sdk/tools/ba-elf-ba2-r36379/bin/../lib/gcc/ba-elf/4.7.4/../../../../ba-elf/lib/mcpu_jn51xx_sizeopt\libc.a(lib_a-memset.o)
 .debug_abbrev  0x00000000000001c0       0x7f c:/nxp/bstudio_nxp/sdk/tools/ba-elf-ba2-r36379/bin/../lib/gcc/ba-elf/4.7.4/../../../../ba-elf/lib/mcpu_jn51xx_sizeopt\libc.a(lib_a-strlen.o)
 .debug_abbrev  0x000000000000023f       0x8e c:/nxp/bstudio_nxp/sdk/tools/ba-elf-ba2-r36379/bin/../lib/gcc/ba-elf/4.7.4/../../../../ba-elf/lib/mcpu_jn51xx_sizeopt\libc.a(lib_a-strncpy.o)
 .debug_abbrev  0x00000000000002cd       0x14 c:/nxp/bstudio_nxp/sdk/tools/ba-elf-ba2-r36379/bin/../lib/gcc/ba-elf/4.7.4/mcpu_jn51xx_sizeopt\libgcc.a(__udivsi3.o)
 .debug_abbrev  0x00000000000002e1       0x14 c:/nxp/bstudio_nxp/sdk/tools/ba-elf-ba2-r36379/bin/../lib/gcc/ba-elf/4.7.4/mcpu_jn51xx_sizeopt\libgcc.a(__divsi3.o)
 .debug_abbrev  0x00000000000002f5       0x14 c:/nxp/bstudio_nxp/sdk/tools/ba-elf-ba2-r36379/bin/../lib/gcc/ba-elf/4.7.4/mcpu_jn51xx_sizeopt\libgcc.a(__umodsi3.o)
 .debug_abbrev  0x0000000000000309       0x14 c:/nxp/bstudio_nxp/sdk/tools/ba-elf-ba2-r36379/bin/../lib/gcc/ba-elf/4.7.4/mcpu_jn51xx_sizeopt\libgcc.a(__modsi3.o)
 .debug_abbrev  0x000000000000031d       0x60 c:/nxp/bstudio_nxp/sdk/tools/ba-elf-ba2-r36379/bin/../lib/gcc/ba-elf/4.7.4/mcpu_jn51xx_sizeopt\libgcc.a(_fixunsdfsi.o)
 .debug_abbrev  0x000000000000037d      0x16e c:/nxp/bstudio_nxp/sdk/tools/ba-elf-ba2-r36379/bin/../lib/gcc/ba-elf/4.7.4/mcpu_jn51xx_sizeopt\libgcc.a(_divdi3.o)
 .debug_abbrev  0x00000000000004eb      0x15d c:/nxp/bstudio_nxp/sdk/tools/ba-elf-ba2-r36379/bin/../lib/gcc/ba-elf/4.7.4/mcpu_jn51xx_sizeopt\libgcc.a(_udivdi3.o)
 .debug_abbrev  0x0000000000000648      0x133 c:/nxp/bstudio_nxp/sdk/tools/ba-elf-ba2-r36379/bin/../lib/gcc/ba-elf/4.7.4/mcpu_jn51xx_sizeopt\libgcc.a(addsf3.o)
 .debug_abbrev  0x000000000000077b      0x126 c:/nxp/bstudio_nxp/sdk/tools/ba-elf-ba2-r36379/bin/../lib/gcc/ba-elf/4.7.4/mcpu_jn51xx_sizeopt\libgcc.a(divsf3.o)
 .debug_abbrev  0x00000000000008a1      0x12a c:/nxp/bstudio_nxp/sdk/tools/ba-elf-ba2-r36379/bin/../lib/gcc/ba-elf/4.7.4/mcpu_jn51xx_sizeopt\libgcc.a(gesf2.o)
 .debug_abbrev  0x00000000000009cb      0x12a c:/nxp/bstudio_nxp/sdk/tools/ba-elf-ba2-r36379/bin/../lib/gcc/ba-elf/4.7.4/mcpu_jn51xx_sizeopt\libgcc.a(lesf2.o)
 .debug_abbrev  0x0000000000000af5      0x12d c:/nxp/bstudio_nxp/sdk/tools/ba-elf-ba2-r36379/bin/../lib/gcc/ba-elf/4.7.4/mcpu_jn51xx_sizeopt\libgcc.a(mulsf3.o)
 .debug_abbrev  0x0000000000000c22      0x133 c:/nxp/bstudio_nxp/sdk/tools/ba-elf-ba2-r36379/bin/../lib/gcc/ba-elf/4.7.4/mcpu_jn51xx_sizeopt\libgcc.a(subsf3.o)
 .debug_abbrev  0x0000000000000d55      0x11b c:/nxp/bstudio_nxp/sdk/tools/ba-elf-ba2-r36379/bin/../lib/gcc/ba-elf/4.7.4/mcpu_jn51xx_sizeopt\libgcc.a(floatunsisf.o)
 .debug_abbrev  0x0000000000000e70      0x12f c:/nxp/bstudio_nxp/sdk/tools/ba-elf-ba2-r36379/bin/../lib/gcc/ba-elf/4.7.4/mcpu_jn51xx_sizeopt\libgcc.a(divdf3.o)
 .debug_abbrev  0x0000000000000f9f      0x137 c:/nxp/bstudio_nxp/sdk/tools/ba-elf-ba2-r36379/bin/../lib/gcc/ba-elf/4.7.4/mcpu_jn51xx_sizeopt\libgcc.a(gedf2.o)
 .debug_abbrev  0x00000000000010d6      0x141 c:/nxp/bstudio_nxp/sdk/tools/ba-elf-ba2-r36379/bin/../lib/gcc/ba-elf/4.7.4/mcpu_jn51xx_sizeopt\libgcc.a(muldf3.o)
 .debug_abbrev  0x0000000000001217      0x133 c:/nxp/bstudio_nxp/sdk/tools/ba-elf-ba2-r36379/bin/../lib/gcc/ba-elf/4.7.4/mcpu_jn51xx_sizeopt\libgcc.a(subdf3.o)
 .debug_abbrev  0x000000000000134a      0x12a c:/nxp/bstudio_nxp/sdk/tools/ba-elf-ba2-r36379/bin/../lib/gcc/ba-elf/4.7.4/mcpu_jn51xx_sizeopt\libgcc.a(fixdfsi.o)
 .debug_abbrev  0x0000000000001474      0x126 c:/nxp/bstudio_nxp/sdk/tools/ba-elf-ba2-r36379/bin/../lib/gcc/ba-elf/4.7.4/mcpu_jn51xx_sizeopt\libgcc.a(extendsfdf2.o)
 .debug_abbrev  0x000000000000159a      0x11b c:/nxp/bstudio_nxp/sdk/tools/ba-elf-ba2-r36379/bin/../lib/gcc/ba-elf/4.7.4/mcpu_jn51xx_sizeopt\libgcc.a(truncdfsf2.o)
 .debug_abbrev  0x00000000000016b5       0x14 c:/NXP/bstudio_nxp/sdk/JN-SW-4168/Components/Library\libBoot_JN516x.a(ExceptionHandler.o)

.debug_loc      0x0000000000000000     0x6d61
 .debug_loc     0x0000000000000000       0x73 c:/nxp/bstudio_nxp/sdk/tools/ba-elf-ba2-r36379/bin/../lib/gcc/ba-elf/4.7.4/../../../../ba-elf/lib/mcpu_jn51xx_sizeopt\libc.a(lib_a-memcmp.o)
 .debug_loc     0x0000000000000073       0x39 c:/nxp/bstudio_nxp/sdk/tools/ba-elf-ba2-r36379/bin/../lib/gcc/ba-elf/4.7.4/../../../../ba-elf/lib/mcpu_jn51xx_sizeopt\libc.a(lib_a-memcpy.o)
 .debug_loc     0x00000000000000ac       0x3f c:/nxp/bstudio_nxp/sdk/tools/ba-elf-ba2-r36379/bin/../lib/gcc/ba-elf/4.7.4/../../../../ba-elf/lib/mcpu_jn51xx_sizeopt\libc.a(lib_a-memset.o)
 .debug_loc     0x00000000000000eb       0x3f c:/nxp/bstudio_nxp/sdk/tools/ba-elf-ba2-r36379/bin/../lib/gcc/ba-elf/4.7.4/../../../../ba-elf/lib/mcpu_jn51xx_sizeopt\libc.a(lib_a-strlen.o)
 .debug_loc     0x000000000000012a       0x93 c:/nxp/bstudio_nxp/sdk/tools/ba-elf-ba2-r36379/bin/../lib/gcc/ba-elf/4.7.4/../../../../ba-elf/lib/mcpu_jn51xx_sizeopt\libc.a(lib_a-strncpy.o)
 .debug_loc     0x00000000000001bd       0x48 c:/nxp/bstudio_nxp/sdk/tools/ba-elf-ba2-r36379/bin/../lib/gcc/ba-elf/4.7.4/mcpu_jn51xx_sizeopt\libgcc.a(_fixunsdfsi.o)
 .debug_loc     0x0000000000000205      0xe52 c:/nxp/bstudio_nxp/sdk/tools/ba-elf-ba2-r36379/bin/../lib/gcc/ba-elf/4.7.4/mcpu_jn51xx_sizeopt\libgcc.a(_divdi3.o)
 .debug_loc     0x0000000000001057      0xa7b c:/nxp/bstudio_nxp/sdk/tools/ba-elf-ba2-r36379/bin/../lib/gcc/ba-elf/4.7.4/mcpu_jn51xx_sizeopt\libgcc.a(_udivdi3.o)
 .debug_loc     0x0000000000001ad2      0x8d5 c:/nxp/bstudio_nxp/sdk/tools/ba-elf-ba2-r36379/bin/../lib/gcc/ba-elf/4.7.4/mcpu_jn51xx_sizeopt\libgcc.a(addsf3.o)
 .debug_loc     0x00000000000023a7      0x498 c:/nxp/bstudio_nxp/sdk/tools/ba-elf-ba2-r36379/bin/../lib/gcc/ba-elf/4.7.4/mcpu_jn51xx_sizeopt\libgcc.a(divsf3.o)
 .debug_loc     0x000000000000283f      0x15e c:/nxp/bstudio_nxp/sdk/tools/ba-elf-ba2-r36379/bin/../lib/gcc/ba-elf/4.7.4/mcpu_jn51xx_sizeopt\libgcc.a(gesf2.o)
 .debug_loc     0x000000000000299d      0x10f c:/nxp/bstudio_nxp/sdk/tools/ba-elf-ba2-r36379/bin/../lib/gcc/ba-elf/4.7.4/mcpu_jn51xx_sizeopt\libgcc.a(lesf2.o)
 .debug_loc     0x0000000000002aac      0x4a6 c:/nxp/bstudio_nxp/sdk/tools/ba-elf-ba2-r36379/bin/../lib/gcc/ba-elf/4.7.4/mcpu_jn51xx_sizeopt\libgcc.a(mulsf3.o)
 .debug_loc     0x0000000000002f52      0x957 c:/nxp/bstudio_nxp/sdk/tools/ba-elf-ba2-r36379/bin/../lib/gcc/ba-elf/4.7.4/mcpu_jn51xx_sizeopt\libgcc.a(subsf3.o)
 .debug_loc     0x00000000000038a9      0x15c c:/nxp/bstudio_nxp/sdk/tools/ba-elf-ba2-r36379/bin/../lib/gcc/ba-elf/4.7.4/mcpu_jn51xx_sizeopt\libgcc.a(floatunsisf.o)
 .debug_loc     0x0000000000003a05     0x117e c:/nxp/bstudio_nxp/sdk/tools/ba-elf-ba2-r36379/bin/../lib/gcc/ba-elf/4.7.4/mcpu_jn51xx_sizeopt\libgcc.a(divdf3.o)
 .debug_loc     0x0000000000004b83      0x154 c:/nxp/bstudio_nxp/sdk/tools/ba-elf-ba2-r36379/bin/../lib/gcc/ba-elf/4.7.4/mcpu_jn51xx_sizeopt\libgcc.a(gedf2.o)
 .debug_loc     0x0000000000004cd7      0xa0e c:/nxp/bstudio_nxp/sdk/tools/ba-elf-ba2-r36379/bin/../lib/gcc/ba-elf/4.7.4/mcpu_jn51xx_sizeopt\libgcc.a(muldf3.o)
 .debug_loc     0x00000000000056e5     0x114e c:/nxp/bstudio_nxp/sdk/tools/ba-elf-ba2-r36379/bin/../lib/gcc/ba-elf/4.7.4/mcpu_jn51xx_sizeopt\libgcc.a(subdf3.o)
 .debug_loc     0x0000000000006833       0xa8 c:/nxp/bstudio_nxp/sdk/tools/ba-elf-ba2-r36379/bin/../lib/gcc/ba-elf/4.7.4/mcpu_jn51xx_sizeopt\libgcc.a(fixdfsi.o)
 .debug_loc     0x00000000000068db      0x1ed c:/nxp/bstudio_nxp/sdk/tools/ba-elf-ba2-r36379/bin/../lib/gcc/ba-elf/4.7.4/mcpu_jn51xx_sizeopt\libgcc.a(extendsfdf2.o)
 .debug_loc     0x0000000000006ac8      0x299 c:/nxp/bstudio_nxp/sdk/tools/ba-elf-ba2-r36379/bin/../lib/gcc/ba-elf/4.7.4/mcpu_jn51xx_sizeopt\libgcc.a(truncdfsf2.o)

.debug_aranges  0x0000000000000000      0x360
 .debug_aranges
                0x0000000000000000       0x20 c:/nxp/bstudio_nxp/sdk/tools/ba-elf-ba2-r36379/bin/../lib/gcc/ba-elf/4.7.4/../../../../ba-elf/lib/mcpu_jn51xx_sizeopt\libc.a(lib_a-memcmp.o)
 .debug_aranges
                0x0000000000000020       0x20 c:/nxp/bstudio_nxp/sdk/tools/ba-elf-ba2-r36379/bin/../lib/gcc/ba-elf/4.7.4/../../../../ba-elf/lib/mcpu_jn51xx_sizeopt\libc.a(lib_a-memcpy.o)
 .debug_aranges
                0x0000000000000040       0x20 c:/nxp/bstudio_nxp/sdk/tools/ba-elf-ba2-r36379/bin/../lib/gcc/ba-elf/4.7.4/../../../../ba-elf/lib/mcpu_jn51xx_sizeopt\libc.a(lib_a-memset.o)
 .debug_aranges
                0x0000000000000060       0x20 c:/nxp/bstudio_nxp/sdk/tools/ba-elf-ba2-r36379/bin/../lib/gcc/ba-elf/4.7.4/../../../../ba-elf/lib/mcpu_jn51xx_sizeopt\libc.a(lib_a-strlen.o)
 .debug_aranges
                0x0000000000000080       0x20 c:/nxp/bstudio_nxp/sdk/tools/ba-elf-ba2-r36379/bin/../lib/gcc/ba-elf/4.7.4/../../../../ba-elf/lib/mcpu_jn51xx_sizeopt\libc.a(lib_a-strncpy.o)
 .debug_aranges
                0x00000000000000a0       0x20 c:/nxp/bstudio_nxp/sdk/tools/ba-elf-ba2-r36379/bin/../lib/gcc/ba-elf/4.7.4/mcpu_jn51xx_sizeopt\libgcc.a(__udivsi3.o)
 .debug_aranges
                0x00000000000000c0       0x20 c:/nxp/bstudio_nxp/sdk/tools/ba-elf-ba2-r36379/bin/../lib/gcc/ba-elf/4.7.4/mcpu_jn51xx_sizeopt\libgcc.a(__divsi3.o)
 .debug_aranges
                0x00000000000000e0       0x20 c:/nxp/bstudio_nxp/sdk/tools/ba-elf-ba2-r36379/bin/../lib/gcc/ba-elf/4.7.4/mcpu_jn51xx_sizeopt\libgcc.a(__umodsi3.o)
 .debug_aranges
                0x0000000000000100       0x20 c:/nxp/bstudio_nxp/sdk/tools/ba-elf-ba2-r36379/bin/../lib/gcc/ba-elf/4.7.4/mcpu_jn51xx_sizeopt\libgcc.a(__modsi3.o)
 .debug_aranges
                0x0000000000000120       0x20 c:/nxp/bstudio_nxp/sdk/tools/ba-elf-ba2-r36379/bin/../lib/gcc/ba-elf/4.7.4/mcpu_jn51xx_sizeopt\libgcc.a(_fixunsdfsi.o)
 .debug_aranges
                0x0000000000000140       0x20 c:/nxp/bstudio_nxp/sdk/tools/ba-elf-ba2-r36379/bin/../lib/gcc/ba-elf/4.7.4/mcpu_jn51xx_sizeopt\libgcc.a(_divdi3.o)
 .debug_aranges
                0x0000000000000160       0x20 c:/nxp/bstudio_nxp/sdk/tools/ba-elf-ba2-r36379/bin/../lib/gcc/ba-elf/4.7.4/mcpu_jn51xx_sizeopt\libgcc.a(_udivdi3.o)
 .debug_aranges
                0x0000000000000180       0x20 c:/nxp/bstudio_nxp/sdk/tools/ba-elf-ba2-r36379/bin/../lib/gcc/ba-elf/4.7.4/mcpu_jn51xx_sizeopt\libgcc.a(addsf3.o)
 .debug_aranges
                0x00000000000001a0       0x20 c:/nxp/bstudio_nxp/sdk/tools/ba-elf-ba2-r36379/bin/../lib/gcc/ba-elf/4.7.4/mcpu_jn51xx_sizeopt\libgcc.a(divsf3.o)
 .debug_aranges
                0x00000000000001c0       0x20 c:/nxp/bstudio_nxp/sdk/tools/ba-elf-ba2-r36379/bin/../lib/gcc/ba-elf/4.7.4/mcpu_jn51xx_sizeopt\libgcc.a(gesf2.o)
 .debug_aranges
                0x00000000000001e0       0x20 c:/nxp/bstudio_nxp/sdk/tools/ba-elf-ba2-r36379/bin/../lib/gcc/ba-elf/4.7.4/mcpu_jn51xx_sizeopt\libgcc.a(lesf2.o)
 .debug_aranges
                0x0000000000000200       0x20 c:/nxp/bstudio_nxp/sdk/tools/ba-elf-ba2-r36379/bin/../lib/gcc/ba-elf/4.7.4/mcpu_jn51xx_sizeopt\libgcc.a(mulsf3.o)
 .debug_aranges
                0x0000000000000220       0x20 c:/nxp/bstudio_nxp/sdk/tools/ba-elf-ba2-r36379/bin/../lib/gcc/ba-elf/4.7.4/mcpu_jn51xx_sizeopt\libgcc.a(subsf3.o)
 .debug_aranges
                0x0000000000000240       0x20 c:/nxp/bstudio_nxp/sdk/tools/ba-elf-ba2-r36379/bin/../lib/gcc/ba-elf/4.7.4/mcpu_jn51xx_sizeopt\libgcc.a(floatunsisf.o)
 .debug_aranges
                0x0000000000000260       0x20 c:/nxp/bstudio_nxp/sdk/tools/ba-elf-ba2-r36379/bin/../lib/gcc/ba-elf/4.7.4/mcpu_jn51xx_sizeopt\libgcc.a(divdf3.o)
 .debug_aranges
                0x0000000000000280       0x20 c:/nxp/bstudio_nxp/sdk/tools/ba-elf-ba2-r36379/bin/../lib/gcc/ba-elf/4.7.4/mcpu_jn51xx_sizeopt\libgcc.a(gedf2.o)
 .debug_aranges
                0x00000000000002a0       0x20 c:/nxp/bstudio_nxp/sdk/tools/ba-elf-ba2-r36379/bin/../lib/gcc/ba-elf/4.7.4/mcpu_jn51xx_sizeopt\libgcc.a(muldf3.o)
 .debug_aranges
                0x00000000000002c0       0x20 c:/nxp/bstudio_nxp/sdk/tools/ba-elf-ba2-r36379/bin/../lib/gcc/ba-elf/4.7.4/mcpu_jn51xx_sizeopt\libgcc.a(subdf3.o)
 .debug_aranges
                0x00000000000002e0       0x20 c:/nxp/bstudio_nxp/sdk/tools/ba-elf-ba2-r36379/bin/../lib/gcc/ba-elf/4.7.4/mcpu_jn51xx_sizeopt\libgcc.a(fixdfsi.o)
 .debug_aranges
                0x0000000000000300       0x20 c:/nxp/bstudio_nxp/sdk/tools/ba-elf-ba2-r36379/bin/../lib/gcc/ba-elf/4.7.4/mcpu_jn51xx_sizeopt\libgcc.a(extendsfdf2.o)
 .debug_aranges
                0x0000000000000320       0x20 c:/nxp/bstudio_nxp/sdk/tools/ba-elf-ba2-r36379/bin/../lib/gcc/ba-elf/4.7.4/mcpu_jn51xx_sizeopt\libgcc.a(truncdfsf2.o)
 .debug_aranges
                0x0000000000000340       0x20 c:/NXP/bstudio_nxp/sdk/JN-SW-4168/Components/Library\libBoot_JN516x.a(ExceptionHandler.o)

.debug_line     0x0000000000000000     0x367b
 .debug_line    0x0000000000000000      0x154 c:/nxp/bstudio_nxp/sdk/tools/ba-elf-ba2-r36379/bin/../lib/gcc/ba-elf/4.7.4/../../../../ba-elf/lib/mcpu_jn51xx_sizeopt\libc.a(lib_a-memcmp.o)
 .debug_line    0x0000000000000154      0x148 c:/nxp/bstudio_nxp/sdk/tools/ba-elf-ba2-r36379/bin/../lib/gcc/ba-elf/4.7.4/../../../../ba-elf/lib/mcpu_jn51xx_sizeopt\libc.a(lib_a-memcpy.o)
 .debug_line    0x000000000000029c      0x13e c:/nxp/bstudio_nxp/sdk/tools/ba-elf-ba2-r36379/bin/../lib/gcc/ba-elf/4.7.4/../../../../ba-elf/lib/mcpu_jn51xx_sizeopt\libc.a(lib_a-memset.o)
 .debug_line    0x00000000000003da      0x12e c:/nxp/bstudio_nxp/sdk/tools/ba-elf-ba2-r36379/bin/../lib/gcc/ba-elf/4.7.4/../../../../ba-elf/lib/mcpu_jn51xx_sizeopt\libc.a(lib_a-strlen.o)
 .debug_line    0x0000000000000508      0x160 c:/nxp/bstudio_nxp/sdk/tools/ba-elf-ba2-r36379/bin/../lib/gcc/ba-elf/4.7.4/../../../../ba-elf/lib/mcpu_jn51xx_sizeopt\libc.a(lib_a-strncpy.o)
 .debug_line    0x0000000000000668      0x47b c:/nxp/bstudio_nxp/sdk/tools/ba-elf-ba2-r36379/bin/../lib/gcc/ba-elf/4.7.4/mcpu_jn51xx_sizeopt\libgcc.a(__udivsi3.o)
 .debug_line    0x0000000000000ae3       0xbb c:/nxp/bstudio_nxp/sdk/tools/ba-elf-ba2-r36379/bin/../lib/gcc/ba-elf/4.7.4/mcpu_jn51xx_sizeopt\libgcc.a(__divsi3.o)
 .debug_line    0x0000000000000b9e      0x3c7 c:/nxp/bstudio_nxp/sdk/tools/ba-elf-ba2-r36379/bin/../lib/gcc/ba-elf/4.7.4/mcpu_jn51xx_sizeopt\libgcc.a(__umodsi3.o)
 .debug_line    0x0000000000000f65       0xa3 c:/nxp/bstudio_nxp/sdk/tools/ba-elf-ba2-r36379/bin/../lib/gcc/ba-elf/4.7.4/mcpu_jn51xx_sizeopt\libgcc.a(__modsi3.o)
 .debug_line    0x0000000000001008       0x9f c:/nxp/bstudio_nxp/sdk/tools/ba-elf-ba2-r36379/bin/../lib/gcc/ba-elf/4.7.4/mcpu_jn51xx_sizeopt\libgcc.a(_fixunsdfsi.o)
 .debug_line    0x00000000000010a7      0x20e c:/nxp/bstudio_nxp/sdk/tools/ba-elf-ba2-r36379/bin/../lib/gcc/ba-elf/4.7.4/mcpu_jn51xx_sizeopt\libgcc.a(_divdi3.o)
 .debug_line    0x00000000000012b5      0x1b7 c:/nxp/bstudio_nxp/sdk/tools/ba-elf-ba2-r36379/bin/../lib/gcc/ba-elf/4.7.4/mcpu_jn51xx_sizeopt\libgcc.a(_udivdi3.o)
 .debug_line    0x000000000000146c      0x448 c:/nxp/bstudio_nxp/sdk/tools/ba-elf-ba2-r36379/bin/../lib/gcc/ba-elf/4.7.4/mcpu_jn51xx_sizeopt\libgcc.a(addsf3.o)
 .debug_line    0x00000000000018b4      0x1b4 c:/nxp/bstudio_nxp/sdk/tools/ba-elf-ba2-r36379/bin/../lib/gcc/ba-elf/4.7.4/mcpu_jn51xx_sizeopt\libgcc.a(divsf3.o)
 .debug_line    0x0000000000001a68      0x115 c:/nxp/bstudio_nxp/sdk/tools/ba-elf-ba2-r36379/bin/../lib/gcc/ba-elf/4.7.4/mcpu_jn51xx_sizeopt\libgcc.a(gesf2.o)
 .debug_line    0x0000000000001b7d      0x115 c:/nxp/bstudio_nxp/sdk/tools/ba-elf-ba2-r36379/bin/../lib/gcc/ba-elf/4.7.4/mcpu_jn51xx_sizeopt\libgcc.a(lesf2.o)
 .debug_line    0x0000000000001c92      0x199 c:/nxp/bstudio_nxp/sdk/tools/ba-elf-ba2-r36379/bin/../lib/gcc/ba-elf/4.7.4/mcpu_jn51xx_sizeopt\libgcc.a(mulsf3.o)
 .debug_line    0x0000000000001e2b      0x475 c:/nxp/bstudio_nxp/sdk/tools/ba-elf-ba2-r36379/bin/../lib/gcc/ba-elf/4.7.4/mcpu_jn51xx_sizeopt\libgcc.a(subsf3.o)
 .debug_line    0x00000000000022a0      0x10e c:/nxp/bstudio_nxp/sdk/tools/ba-elf-ba2-r36379/bin/../lib/gcc/ba-elf/4.7.4/mcpu_jn51xx_sizeopt\libgcc.a(floatunsisf.o)
 .debug_line    0x00000000000023ae      0x3b5 c:/nxp/bstudio_nxp/sdk/tools/ba-elf-ba2-r36379/bin/../lib/gcc/ba-elf/4.7.4/mcpu_jn51xx_sizeopt\libgcc.a(divdf3.o)
 .debug_line    0x0000000000002763      0x15f c:/nxp/bstudio_nxp/sdk/tools/ba-elf-ba2-r36379/bin/../lib/gcc/ba-elf/4.7.4/mcpu_jn51xx_sizeopt\libgcc.a(gedf2.o)
 .debug_line    0x00000000000028c2      0x269 c:/nxp/bstudio_nxp/sdk/tools/ba-elf-ba2-r36379/bin/../lib/gcc/ba-elf/4.7.4/mcpu_jn51xx_sizeopt\libgcc.a(muldf3.o)
 .debug_line    0x0000000000002b2b      0x656 c:/nxp/bstudio_nxp/sdk/tools/ba-elf-ba2-r36379/bin/../lib/gcc/ba-elf/4.7.4/mcpu_jn51xx_sizeopt\libgcc.a(subdf3.o)
 .debug_line    0x0000000000003181       0xc8 c:/nxp/bstudio_nxp/sdk/tools/ba-elf-ba2-r36379/bin/../lib/gcc/ba-elf/4.7.4/mcpu_jn51xx_sizeopt\libgcc.a(fixdfsi.o)
 .debug_line    0x0000000000003249      0x10b c:/nxp/bstudio_nxp/sdk/tools/ba-elf-ba2-r36379/bin/../lib/gcc/ba-elf/4.7.4/mcpu_jn51xx_sizeopt\libgcc.a(extendsfdf2.o)
 .debug_line    0x0000000000003354      0x18a c:/nxp/bstudio_nxp/sdk/tools/ba-elf-ba2-r36379/bin/../lib/gcc/ba-elf/4.7.4/mcpu_jn51xx_sizeopt\libgcc.a(truncdfsf2.o)
 .debug_line    0x00000000000034de      0x19d c:/NXP/bstudio_nxp/sdk/JN-SW-4168/Components/Library\libBoot_JN516x.a(ExceptionHandler.o)

.debug_str      0x0000000000000000      0x897
 .debug_str     0x0000000000000000      0x119 c:/nxp/bstudio_nxp/sdk/tools/ba-elf-ba2-r36379/bin/../lib/gcc/ba-elf/4.7.4/../../../../ba-elf/lib/mcpu_jn51xx_sizeopt\libc.a(lib_a-memcmp.o)
                                        0x152 (size before relaxing)
 .debug_str     0x0000000000000119       0x5d c:/nxp/bstudio_nxp/sdk/tools/ba-elf-ba2-r36379/bin/../lib/gcc/ba-elf/4.7.4/../../../../ba-elf/lib/mcpu_jn51xx_sizeopt\libc.a(lib_a-memcpy.o)
                                        0x166 (size before relaxing)
 .debug_str     0x0000000000000176       0x49 c:/nxp/bstudio_nxp/sdk/tools/ba-elf-ba2-r36379/bin/../lib/gcc/ba-elf/4.7.4/../../../../ba-elf/lib/mcpu_jn51xx_sizeopt\libc.a(lib_a-memset.o)
                                        0x152 (size before relaxing)
 .debug_str     0x00000000000001bf       0x4f c:/nxp/bstudio_nxp/sdk/tools/ba-elf-ba2-r36379/bin/../lib/gcc/ba-elf/4.7.4/../../../../ba-elf/lib/mcpu_jn51xx_sizeopt\libc.a(lib_a-strlen.o)
                                        0x158 (size before relaxing)
 .debug_str     0x000000000000020e       0x5d c:/nxp/bstudio_nxp/sdk/tools/ba-elf-ba2-r36379/bin/../lib/gcc/ba-elf/4.7.4/../../../../ba-elf/lib/mcpu_jn51xx_sizeopt\libc.a(lib_a-strncpy.o)
                                        0x170 (size before relaxing)
 .debug_str     0x000000000000026b       0xc2 c:/nxp/bstudio_nxp/sdk/tools/ba-elf-ba2-r36379/bin/../lib/gcc/ba-elf/4.7.4/mcpu_jn51xx_sizeopt\libgcc.a(_fixunsdfsi.o)
                                        0x166 (size before relaxing)
 .debug_str     0x000000000000032d       0x7a c:/nxp/bstudio_nxp/sdk/tools/ba-elf-ba2-r36379/bin/../lib/gcc/ba-elf/4.7.4/mcpu_jn51xx_sizeopt\libgcc.a(_divdi3.o)
                                        0x1d3 (size before relaxing)
 .debug_str     0x00000000000003a7        0xa c:/nxp/bstudio_nxp/sdk/tools/ba-elf-ba2-r36379/bin/../lib/gcc/ba-elf/4.7.4/mcpu_jn51xx_sizeopt\libgcc.a(_udivdi3.o)
                                        0x1d4 (size before relaxing)
 .debug_str     0x00000000000003b1       0xa8 c:/nxp/bstudio_nxp/sdk/tools/ba-elf-ba2-r36379/bin/../lib/gcc/ba-elf/4.7.4/mcpu_jn51xx_sizeopt\libgcc.a(addsf3.o)
                                        0x191 (size before relaxing)
 .debug_str     0x0000000000000459       0x48 c:/nxp/bstudio_nxp/sdk/tools/ba-elf-ba2-r36379/bin/../lib/gcc/ba-elf/4.7.4/mcpu_jn51xx_sizeopt\libgcc.a(divsf3.o)
                                        0x15e (size before relaxing)
 .debug_str     0x00000000000004a1       0x57 c:/nxp/bstudio_nxp/sdk/tools/ba-elf-ba2-r36379/bin/../lib/gcc/ba-elf/4.7.4/mcpu_jn51xx_sizeopt\libgcc.a(gesf2.o)
                                        0x167 (size before relaxing)
 .debug_str     0x00000000000004f8       0x3f c:/nxp/bstudio_nxp/sdk/tools/ba-elf-ba2-r36379/bin/../lib/gcc/ba-elf/4.7.4/mcpu_jn51xx_sizeopt\libgcc.a(lesf2.o)
                                        0x167 (size before relaxing)
 .debug_str     0x0000000000000537       0x55 c:/nxp/bstudio_nxp/sdk/tools/ba-elf-ba2-r36379/bin/../lib/gcc/ba-elf/4.7.4/mcpu_jn51xx_sizeopt\libgcc.a(mulsf3.o)
                                        0x194 (size before relaxing)
 .debug_str     0x000000000000058c       0x41 c:/nxp/bstudio_nxp/sdk/tools/ba-elf-ba2-r36379/bin/../lib/gcc/ba-elf/4.7.4/mcpu_jn51xx_sizeopt\libgcc.a(subsf3.o)
                                        0x191 (size before relaxing)
 .debug_str     0x00000000000005cd       0x58 c:/nxp/bstudio_nxp/sdk/tools/ba-elf-ba2-r36379/bin/../lib/gcc/ba-elf/4.7.4/mcpu_jn51xx_sizeopt\libgcc.a(floatunsisf.o)
                                        0x170 (size before relaxing)
 .debug_str     0x0000000000000625       0xa1 c:/nxp/bstudio_nxp/sdk/tools/ba-elf-ba2-r36379/bin/../lib/gcc/ba-elf/4.7.4/mcpu_jn51xx_sizeopt\libgcc.a(divdf3.o)
                                        0x1f6 (size before relaxing)
 .debug_str     0x00000000000006c6       0x3f c:/nxp/bstudio_nxp/sdk/tools/ba-elf-ba2-r36379/bin/../lib/gcc/ba-elf/4.7.4/mcpu_jn51xx_sizeopt\libgcc.a(gedf2.o)
                                        0x183 (size before relaxing)
 .debug_str     0x0000000000000705       0x72 c:/nxp/bstudio_nxp/sdk/tools/ba-elf-ba2-r36379/bin/../lib/gcc/ba-elf/4.7.4/mcpu_jn51xx_sizeopt\libgcc.a(muldf3.o)
                                        0x1e8 (size before relaxing)
 .debug_str     0x0000000000000777       0x41 c:/nxp/bstudio_nxp/sdk/tools/ba-elf-ba2-r36379/bin/../lib/gcc/ba-elf/4.7.4/mcpu_jn51xx_sizeopt\libgcc.a(subdf3.o)
                                        0x1b7 (size before relaxing)
 .debug_str     0x00000000000007b8       0x4b c:/nxp/bstudio_nxp/sdk/tools/ba-elf-ba2-r36379/bin/../lib/gcc/ba-elf/4.7.4/mcpu_jn51xx_sizeopt\libgcc.a(fixdfsi.o)
                                        0x17c (size before relaxing)
 .debug_str     0x0000000000000803       0x4b c:/nxp/bstudio_nxp/sdk/tools/ba-elf-ba2-r36379/bin/../lib/gcc/ba-elf/4.7.4/mcpu_jn51xx_sizeopt\libgcc.a(extendsfdf2.o)
                                        0x18b (size before relaxing)
 .debug_str     0x000000000000084e       0x49 c:/nxp/bstudio_nxp/sdk/tools/ba-elf-ba2-r36379/bin/../lib/gcc/ba-elf/4.7.4/mcpu_jn51xx_sizeopt\libgcc.a(truncdfsf2.o)
                                        0x189 (size before relaxing)

.debug_frame    0x0000000000000000      0x334
 .debug_frame   0x0000000000000000       0x20 c:/nxp/bstudio_nxp/sdk/tools/ba-elf-ba2-r36379/bin/../lib/gcc/ba-elf/4.7.4/../../../../ba-elf/lib/mcpu_jn51xx_sizeopt\libc.a(lib_a-memcmp.o)
 .debug_frame   0x0000000000000020       0x20 c:/nxp/bstudio_nxp/sdk/tools/ba-elf-ba2-r36379/bin/../lib/gcc/ba-elf/4.7.4/../../../../ba-elf/lib/mcpu_jn51xx_sizeopt\libc.a(lib_a-memcpy.o)
 .debug_frame   0x0000000000000040       0x20 c:/nxp/bstudio_nxp/sdk/tools/ba-elf-ba2-r36379/bin/../lib/gcc/ba-elf/4.7.4/../../../../ba-elf/lib/mcpu_jn51xx_sizeopt\libc.a(lib_a-memset.o)
 .debug_frame   0x0000000000000060       0x20 c:/nxp/bstudio_nxp/sdk/tools/ba-elf-ba2-r36379/bin/../lib/gcc/ba-elf/4.7.4/../../../../ba-elf/lib/mcpu_jn51xx_sizeopt\libc.a(lib_a-strlen.o)
 .debug_frame   0x0000000000000080       0x20 c:/nxp/bstudio_nxp/sdk/tools/ba-elf-ba2-r36379/bin/../lib/gcc/ba-elf/4.7.4/../../../../ba-elf/lib/mcpu_jn51xx_sizeopt\libc.a(lib_a-strncpy.o)
 .debug_frame   0x00000000000000a0       0x2c c:/nxp/bstudio_nxp/sdk/tools/ba-elf-ba2-r36379/bin/../lib/gcc/ba-elf/4.7.4/mcpu_jn51xx_sizeopt\libgcc.a(_fixunsdfsi.o)
 .debug_frame   0x00000000000000cc       0x2c c:/nxp/bstudio_nxp/sdk/tools/ba-elf-ba2-r36379/bin/../lib/gcc/ba-elf/4.7.4/mcpu_jn51xx_sizeopt\libgcc.a(addsf3.o)
 .debug_frame   0x00000000000000f8       0x30 c:/nxp/bstudio_nxp/sdk/tools/ba-elf-ba2-r36379/bin/../lib/gcc/ba-elf/4.7.4/mcpu_jn51xx_sizeopt\libgcc.a(divsf3.o)
 .debug_frame   0x0000000000000128       0x2c c:/nxp/bstudio_nxp/sdk/tools/ba-elf-ba2-r36379/bin/../lib/gcc/ba-elf/4.7.4/mcpu_jn51xx_sizeopt\libgcc.a(gesf2.o)
 .debug_frame   0x0000000000000154       0x2c c:/nxp/bstudio_nxp/sdk/tools/ba-elf-ba2-r36379/bin/../lib/gcc/ba-elf/4.7.4/mcpu_jn51xx_sizeopt\libgcc.a(lesf2.o)
 .debug_frame   0x0000000000000180       0x30 c:/nxp/bstudio_nxp/sdk/tools/ba-elf-ba2-r36379/bin/../lib/gcc/ba-elf/4.7.4/mcpu_jn51xx_sizeopt\libgcc.a(mulsf3.o)
 .debug_frame   0x00000000000001b0       0x2c c:/nxp/bstudio_nxp/sdk/tools/ba-elf-ba2-r36379/bin/../lib/gcc/ba-elf/4.7.4/mcpu_jn51xx_sizeopt\libgcc.a(subsf3.o)
 .debug_frame   0x00000000000001dc       0x20 c:/nxp/bstudio_nxp/sdk/tools/ba-elf-ba2-r36379/bin/../lib/gcc/ba-elf/4.7.4/mcpu_jn51xx_sizeopt\libgcc.a(floatunsisf.o)
 .debug_frame   0x00000000000001fc       0x34 c:/nxp/bstudio_nxp/sdk/tools/ba-elf-ba2-r36379/bin/../lib/gcc/ba-elf/4.7.4/mcpu_jn51xx_sizeopt\libgcc.a(divdf3.o)
 .debug_frame   0x0000000000000230       0x34 c:/nxp/bstudio_nxp/sdk/tools/ba-elf-ba2-r36379/bin/../lib/gcc/ba-elf/4.7.4/mcpu_jn51xx_sizeopt\libgcc.a(gedf2.o)
 .debug_frame   0x0000000000000264       0x34 c:/nxp/bstudio_nxp/sdk/tools/ba-elf-ba2-r36379/bin/../lib/gcc/ba-elf/4.7.4/mcpu_jn51xx_sizeopt\libgcc.a(muldf3.o)
 .debug_frame   0x0000000000000298       0x30 c:/nxp/bstudio_nxp/sdk/tools/ba-elf-ba2-r36379/bin/../lib/gcc/ba-elf/4.7.4/mcpu_jn51xx_sizeopt\libgcc.a(subdf3.o)
 .debug_frame   0x00000000000002c8       0x20 c:/nxp/bstudio_nxp/sdk/tools/ba-elf-ba2-r36379/bin/../lib/gcc/ba-elf/4.7.4/mcpu_jn51xx_sizeopt\libgcc.a(fixdfsi.o)
 .debug_frame   0x00000000000002e8       0x20 c:/nxp/bstudio_nxp/sdk/tools/ba-elf-ba2-r36379/bin/../lib/gcc/ba-elf/4.7.4/mcpu_jn51xx_sizeopt\libgcc.a(extendsfdf2.o)
 .debug_frame   0x0000000000000308       0x2c c:/nxp/bstudio_nxp/sdk/tools/ba-elf-ba2-r36379/bin/../lib/gcc/ba-elf/4.7.4/mcpu_jn51xx_sizeopt\libgcc.a(truncdfsf2.o)

.debug_ranges   0x0000000000000000      0x660
 .debug_ranges  0x0000000000000000       0x80 c:/nxp/bstudio_nxp/sdk/tools/ba-elf-ba2-r36379/bin/../lib/gcc/ba-elf/4.7.4/mcpu_jn51xx_sizeopt\libgcc.a(_divdi3.o)
 .debug_ranges  0x0000000000000080       0xa0 c:/nxp/bstudio_nxp/sdk/tools/ba-elf-ba2-r36379/bin/../lib/gcc/ba-elf/4.7.4/mcpu_jn51xx_sizeopt\libgcc.a(_udivdi3.o)
 .debug_ranges  0x0000000000000120       0x78 c:/nxp/bstudio_nxp/sdk/tools/ba-elf-ba2-r36379/bin/../lib/gcc/ba-elf/4.7.4/mcpu_jn51xx_sizeopt\libgcc.a(addsf3.o)
 .debug_ranges  0x0000000000000198       0x18 c:/nxp/bstudio_nxp/sdk/tools/ba-elf-ba2-r36379/bin/../lib/gcc/ba-elf/4.7.4/mcpu_jn51xx_sizeopt\libgcc.a(divsf3.o)
 .debug_ranges  0x00000000000001b0       0x38 c:/nxp/bstudio_nxp/sdk/tools/ba-elf-ba2-r36379/bin/../lib/gcc/ba-elf/4.7.4/mcpu_jn51xx_sizeopt\libgcc.a(gesf2.o)
 .debug_ranges  0x00000000000001e8       0x40 c:/nxp/bstudio_nxp/sdk/tools/ba-elf-ba2-r36379/bin/../lib/gcc/ba-elf/4.7.4/mcpu_jn51xx_sizeopt\libgcc.a(lesf2.o)
 .debug_ranges  0x0000000000000228       0x40 c:/nxp/bstudio_nxp/sdk/tools/ba-elf-ba2-r36379/bin/../lib/gcc/ba-elf/4.7.4/mcpu_jn51xx_sizeopt\libgcc.a(mulsf3.o)
 .debug_ranges  0x0000000000000268       0x78 c:/nxp/bstudio_nxp/sdk/tools/ba-elf-ba2-r36379/bin/../lib/gcc/ba-elf/4.7.4/mcpu_jn51xx_sizeopt\libgcc.a(subsf3.o)
 .debug_ranges  0x00000000000002e0       0xb0 c:/nxp/bstudio_nxp/sdk/tools/ba-elf-ba2-r36379/bin/../lib/gcc/ba-elf/4.7.4/mcpu_jn51xx_sizeopt\libgcc.a(divdf3.o)
 .debug_ranges  0x0000000000000390       0x58 c:/nxp/bstudio_nxp/sdk/tools/ba-elf-ba2-r36379/bin/../lib/gcc/ba-elf/4.7.4/mcpu_jn51xx_sizeopt\libgcc.a(gedf2.o)
 .debug_ranges  0x00000000000003e8      0x1a8 c:/nxp/bstudio_nxp/sdk/tools/ba-elf-ba2-r36379/bin/../lib/gcc/ba-elf/4.7.4/mcpu_jn51xx_sizeopt\libgcc.a(muldf3.o)
 .debug_ranges  0x0000000000000590       0x78 c:/nxp/bstudio_nxp/sdk/tools/ba-elf-ba2-r36379/bin/../lib/gcc/ba-elf/4.7.4/mcpu_jn51xx_sizeopt\libgcc.a(subdf3.o)
 .debug_ranges  0x0000000000000608       0x18 c:/nxp/bstudio_nxp/sdk/tools/ba-elf-ba2-r36379/bin/../lib/gcc/ba-elf/4.7.4/mcpu_jn51xx_sizeopt\libgcc.a(fixdfsi.o)
 .debug_ranges  0x0000000000000620       0x18 c:/nxp/bstudio_nxp/sdk/tools/ba-elf-ba2-r36379/bin/../lib/gcc/ba-elf/4.7.4/mcpu_jn51xx_sizeopt\libgcc.a(extendsfdf2.o)
 .debug_ranges  0x0000000000000638       0x28 c:/nxp/bstudio_nxp/sdk/tools/ba-elf-ba2-r36379/bin/../lib/gcc/ba-elf/4.7.4/mcpu_jn51xx_sizeopt\libgcc.a(truncdfsf2.o)
